
main.elf:     file format elf32-avr

Sections:
Idx Name          Size      VMA       LMA       File off  Algn
  0 .text         00003a56  00000000  00000000  00000074  2**1
                  CONTENTS, ALLOC, LOAD, READONLY, CODE
  1 .bss          00000002  00800100  00800100  00003aca  2**0
                  ALLOC
  2 .comment      00000030  00000000  00000000  00003aca  2**0
                  CONTENTS, READONLY
  3 .debug_aranges 00000558  00000000  00000000  00003afa  2**0
                  CONTENTS, READONLY, DEBUGGING
  4 .debug_info   00017211  00000000  00000000  00004052  2**0
                  CONTENTS, READONLY, DEBUGGING
  5 .debug_abbrev 00000706  00000000  00000000  0001b263  2**0
                  CONTENTS, READONLY, DEBUGGING
  6 .debug_line   00004b67  00000000  00000000  0001b969  2**0
                  CONTENTS, READONLY, DEBUGGING
  7 .debug_frame  00000b80  00000000  00000000  000204d0  2**2
                  CONTENTS, READONLY, DEBUGGING
  8 .debug_str    00000b3e  00000000  00000000  00021050  2**0
                  CONTENTS, READONLY, DEBUGGING
  9 .debug_loc    00001056  00000000  00000000  00021b8e  2**0
                  CONTENTS, READONLY, DEBUGGING
 10 .debug_ranges 000004f8  00000000  00000000  00022be4  2**0
                  CONTENTS, READONLY, DEBUGGING

Disassembly of section .text:

00000000 <__vectors>:
       0:	4c c0       	rjmp	.+152    	; 0x9a <__ctors_end>
       2:	00 00       	nop
       4:	68 c0       	rjmp	.+208    	; 0xd6 <__bad_interrupt>
       6:	00 00       	nop
       8:	66 c0       	rjmp	.+204    	; 0xd6 <__bad_interrupt>
       a:	00 00       	nop
       c:	64 c0       	rjmp	.+200    	; 0xd6 <__bad_interrupt>
       e:	00 00       	nop
      10:	62 c0       	rjmp	.+196    	; 0xd6 <__bad_interrupt>
      12:	00 00       	nop
      14:	60 c0       	rjmp	.+192    	; 0xd6 <__bad_interrupt>
      16:	00 00       	nop
      18:	5e c0       	rjmp	.+188    	; 0xd6 <__bad_interrupt>
      1a:	00 00       	nop
      1c:	5c c0       	rjmp	.+184    	; 0xd6 <__bad_interrupt>
      1e:	00 00       	nop
      20:	5a c0       	rjmp	.+180    	; 0xd6 <__bad_interrupt>
      22:	00 00       	nop
      24:	58 c0       	rjmp	.+176    	; 0xd6 <__bad_interrupt>
      26:	00 00       	nop
      28:	56 c0       	rjmp	.+172    	; 0xd6 <__bad_interrupt>
      2a:	00 00       	nop
      2c:	54 c0       	rjmp	.+168    	; 0xd6 <__bad_interrupt>
      2e:	00 00       	nop
      30:	52 c0       	rjmp	.+164    	; 0xd6 <__bad_interrupt>
      32:	00 00       	nop
      34:	50 c0       	rjmp	.+160    	; 0xd6 <__bad_interrupt>
      36:	00 00       	nop
      38:	4e c0       	rjmp	.+156    	; 0xd6 <__bad_interrupt>
      3a:	00 00       	nop
      3c:	4c c0       	rjmp	.+152    	; 0xd6 <__bad_interrupt>
      3e:	00 00       	nop
      40:	4a c0       	rjmp	.+148    	; 0xd6 <__bad_interrupt>
      42:	00 00       	nop
      44:	48 c0       	rjmp	.+144    	; 0xd6 <__bad_interrupt>
      46:	00 00       	nop
      48:	46 c0       	rjmp	.+140    	; 0xd6 <__bad_interrupt>
      4a:	00 00       	nop
      4c:	0c 94 15 1c 	jmp	0x382a	; 0x382a <__vector_19>
      50:	42 c0       	rjmp	.+132    	; 0xd6 <__bad_interrupt>
      52:	00 00       	nop
      54:	40 c0       	rjmp	.+128    	; 0xd6 <__bad_interrupt>
      56:	00 00       	nop
      58:	3e c0       	rjmp	.+124    	; 0xd6 <__bad_interrupt>
      5a:	00 00       	nop
      5c:	3c c0       	rjmp	.+120    	; 0xd6 <__bad_interrupt>
      5e:	00 00       	nop
      60:	3a c0       	rjmp	.+116    	; 0xd6 <__bad_interrupt>
      62:	00 00       	nop
      64:	38 c0       	rjmp	.+112    	; 0xd6 <__bad_interrupt>
      66:	00 00       	nop
      68:	36 c0       	rjmp	.+108    	; 0xd6 <__bad_interrupt>
      6a:	00 00       	nop
      6c:	34 c0       	rjmp	.+104    	; 0xd6 <__bad_interrupt>
      6e:	00 00       	nop
      70:	32 c0       	rjmp	.+100    	; 0xd6 <__bad_interrupt>
      72:	00 00       	nop
      74:	30 c0       	rjmp	.+96     	; 0xd6 <__bad_interrupt>
      76:	00 00       	nop
      78:	2e c0       	rjmp	.+92     	; 0xd6 <__bad_interrupt>
      7a:	00 00       	nop
      7c:	2c c0       	rjmp	.+88     	; 0xd6 <__bad_interrupt>
      7e:	00 00       	nop
      80:	2a c0       	rjmp	.+84     	; 0xd6 <__bad_interrupt>
      82:	00 00       	nop
      84:	28 c0       	rjmp	.+80     	; 0xd6 <__bad_interrupt>
      86:	00 00       	nop
      88:	26 c0       	rjmp	.+76     	; 0xd6 <__bad_interrupt>
      8a:	00 00       	nop
      8c:	9b 1b       	sub	r25, r27
      8e:	ac 1b       	sub	r26, r28
      90:	bc 1b       	sub	r27, r28
      92:	cd 1b       	sub	r28, r29
      94:	de 1b       	sub	r29, r30
      96:	ef 1b       	sub	r30, r31
      98:	ff 1b       	sub	r31, r31

0000009a <__ctors_end>:
      9a:	11 24       	eor	r1, r1
      9c:	1f be       	out	0x3f, r1	; 63
      9e:	cf ef       	ldi	r28, 0xFF	; 255
      a0:	d0 e4       	ldi	r29, 0x40	; 64
      a2:	de bf       	out	0x3e, r29	; 62
      a4:	cd bf       	out	0x3d, r28	; 61

000000a6 <__do_copy_data>:
      a6:	11 e0       	ldi	r17, 0x01	; 1
      a8:	a0 e0       	ldi	r26, 0x00	; 0
      aa:	b1 e0       	ldi	r27, 0x01	; 1
      ac:	e6 e5       	ldi	r30, 0x56	; 86
      ae:	fa e3       	ldi	r31, 0x3A	; 58
      b0:	00 e0       	ldi	r16, 0x00	; 0
      b2:	0b bf       	out	0x3b, r16	; 59
      b4:	02 c0       	rjmp	.+4      	; 0xba <__do_copy_data+0x14>
      b6:	07 90       	elpm	r0, Z+
      b8:	0d 92       	st	X+, r0
      ba:	a0 30       	cpi	r26, 0x00	; 0
      bc:	b1 07       	cpc	r27, r17
      be:	d9 f7       	brne	.-10     	; 0xb6 <__do_copy_data+0x10>

000000c0 <__do_clear_bss>:
      c0:	21 e0       	ldi	r18, 0x01	; 1
      c2:	a0 e0       	ldi	r26, 0x00	; 0
      c4:	b1 e0       	ldi	r27, 0x01	; 1
      c6:	01 c0       	rjmp	.+2      	; 0xca <.do_clear_bss_start>

000000c8 <.do_clear_bss_loop>:
      c8:	1d 92       	st	X+, r1

000000ca <.do_clear_bss_start>:
      ca:	a2 30       	cpi	r26, 0x02	; 2
      cc:	b2 07       	cpc	r27, r18
      ce:	e1 f7       	brne	.-8      	; 0xc8 <.do_clear_bss_loop>
      d0:	3c d0       	rcall	.+120    	; 0x14a <main>
      d2:	0c 94 29 1d 	jmp	0x3a52	; 0x3a52 <_exit>

000000d6 <__bad_interrupt>:
      d6:	94 cf       	rjmp	.-216    	; 0x0 <__vectors>

000000d8 <led_blink_red>:
#include "led.h"

void led_blink_red (uint16_t i)
{
	//Blink LED "i" number of times
	for (; i>0; --i)
      d8:	00 97       	sbiw	r24, 0x00	; 0
      da:	b9 f0       	breq	.+46     	; 0x10a <led_blink_red+0x32>
	{
		PORTB|=(1<<0);
      dc:	28 9a       	sbi	0x05, 0	; 5
	#else
		//round up by default
		__ticks_dc = (uint32_t)(ceil(fabs(__tmp)));
	#endif

	__builtin_avr_delay_cycles(__ticks_dc);
      de:	2f ef       	ldi	r18, 0xFF	; 255
      e0:	39 e6       	ldi	r19, 0x69	; 105
      e2:	48 e1       	ldi	r20, 0x18	; 24
      e4:	21 50       	subi	r18, 0x01	; 1
      e6:	30 40       	sbci	r19, 0x00	; 0
      e8:	40 40       	sbci	r20, 0x00	; 0
      ea:	e1 f7       	brne	.-8      	; 0xe4 <led_blink_red+0xc>
      ec:	00 c0       	rjmp	.+0      	; 0xee <led_blink_red+0x16>
      ee:	00 00       	nop
		_delay_ms(500);
		PORTB=(0<<0);
      f0:	15 b8       	out	0x05, r1	; 5
      f2:	2f ef       	ldi	r18, 0xFF	; 255
      f4:	39 e6       	ldi	r19, 0x69	; 105
      f6:	48 e1       	ldi	r20, 0x18	; 24
      f8:	21 50       	subi	r18, 0x01	; 1
      fa:	30 40       	sbci	r19, 0x00	; 0
      fc:	40 40       	sbci	r20, 0x00	; 0
      fe:	e1 f7       	brne	.-8      	; 0xf8 <led_blink_red+0x20>
     100:	00 c0       	rjmp	.+0      	; 0x102 <led_blink_red+0x2a>
     102:	00 00       	nop
#include "led.h"

void led_blink_red (uint16_t i)
{
	//Blink LED "i" number of times
	for (; i>0; --i)
     104:	01 97       	sbiw	r24, 0x01	; 1
     106:	00 97       	sbiw	r24, 0x00	; 0
     108:	49 f7       	brne	.-46     	; 0xdc <led_blink_red+0x4>
     10a:	08 95       	ret

0000010c <led_blink_green>:
}

void led_blink_green (uint16_t i)
{
	//Blink LED "i" number of times
	for (; i>0; --i)
     10c:	00 97       	sbiw	r24, 0x00	; 0
     10e:	b9 f0       	breq	.+46     	; 0x13e <led_blink_green+0x32>
	{
		PORTB|=(1<<1);
     110:	29 9a       	sbi	0x05, 1	; 5
     112:	2f ef       	ldi	r18, 0xFF	; 255
     114:	39 e6       	ldi	r19, 0x69	; 105
     116:	48 e1       	ldi	r20, 0x18	; 24
     118:	21 50       	subi	r18, 0x01	; 1
     11a:	30 40       	sbci	r19, 0x00	; 0
     11c:	40 40       	sbci	r20, 0x00	; 0
     11e:	e1 f7       	brne	.-8      	; 0x118 <led_blink_green+0xc>
     120:	00 c0       	rjmp	.+0      	; 0x122 <led_blink_green+0x16>
     122:	00 00       	nop
		_delay_ms(500);
		PORTB=(0<<1);
     124:	15 b8       	out	0x05, r1	; 5
     126:	2f ef       	ldi	r18, 0xFF	; 255
     128:	39 e6       	ldi	r19, 0x69	; 105
     12a:	48 e1       	ldi	r20, 0x18	; 24
     12c:	21 50       	subi	r18, 0x01	; 1
     12e:	30 40       	sbci	r19, 0x00	; 0
     130:	40 40       	sbci	r20, 0x00	; 0
     132:	e1 f7       	brne	.-8      	; 0x12c <led_blink_green+0x20>
     134:	00 c0       	rjmp	.+0      	; 0x136 <led_blink_green+0x2a>
     136:	00 00       	nop
}

void led_blink_green (uint16_t i)
{
	//Blink LED "i" number of times
	for (; i>0; --i)
     138:	01 97       	sbiw	r24, 0x01	; 1
     13a:	00 97       	sbiw	r24, 0x00	; 0
     13c:	49 f7       	brne	.-46     	; 0x110 <led_blink_green+0x4>
     13e:	08 95       	ret

00000140 <main_init>:
#include "walk.h"
#include <stdbool.h>

void main_init(void)
{
	spi_init();
     140:	3f d1       	rcall	.+638    	; 0x3c0 <spi_init>
	data_direction_init();
     142:	4b d1       	rcall	.+662    	; 0x3da <data_direction_init>
	uart_init();
     144:	55 d1       	rcall	.+682    	; 0x3f0 <uart_init>
	servo_init();
     146:	20 c1       	rjmp	.+576    	; 0x388 <servo_init>
     148:	08 95       	ret

0000014a <main>:
************************************************************************************************************/


int main(void)
{
	main_init();
     14a:	fa df       	rcall	.-12     	; 0x140 <main_init>
     14c:	2f ef       	ldi	r18, 0xFF	; 255
     14e:	83 ed       	ldi	r24, 0xD3	; 211
     150:	90 e3       	ldi	r25, 0x30	; 48
     152:	21 50       	subi	r18, 0x01	; 1
     154:	80 40       	sbci	r24, 0x00	; 0
     156:	90 40       	sbci	r25, 0x00	; 0
     158:	e1 f7       	brne	.-8      	; 0x152 <main+0x8>
     15a:	00 c0       	rjmp	.+0      	; 0x15c <main+0x12>
     15c:	00 00       	nop
	_delay_ms(1000);
	stand();
     15e:	5b d1       	rcall	.+694    	; 0x416 <stand>
     160:	2f ef       	ldi	r18, 0xFF	; 255
     162:	83 ed       	ldi	r24, 0xD3	; 211
     164:	90 e3       	ldi	r25, 0x30	; 48
     166:	21 50       	subi	r18, 0x01	; 1
     168:	80 40       	sbci	r24, 0x00	; 0
     16a:	90 40       	sbci	r25, 0x00	; 0
     16c:	e1 f7       	brne	.-8      	; 0x166 <main+0x1c>
     16e:	00 c0       	rjmp	.+0      	; 0x170 <main+0x26>
     170:	00 00       	nop
	_delay_ms(1000);
	led_blink_red(1);
     172:	81 e0       	ldi	r24, 0x01	; 1
     174:	90 e0       	ldi	r25, 0x00	; 0
     176:	b0 df       	rcall	.-160    	; 0xd8 <led_blink_red>
	led_blink_green(1);
     178:	81 e0       	ldi	r24, 0x01	; 1
     17a:	90 e0       	ldi	r25, 0x00	; 0
     17c:	c7 df       	rcall	.-114    	; 0x10c <led_blink_green>



	while(1)
	{
		set_data_sending(false);
     17e:	80 e0       	ldi	r24, 0x00	; 0
     180:	0e 94 12 1c 	call	0x3824	; 0x3824 <set_data_sending>
     184:	fc cf       	rjmp	.-8      	; 0x17e <main+0x34>

00000186 <send_servo_command>:

void reset_servo(const uint8_t servoId)
{
	uint8_t params[1] = {0};
	send_servo_command(servoId, RESET, 2, params);
}
     186:	df 92       	push	r13
     188:	ef 92       	push	r14
     18a:	ff 92       	push	r15
     18c:	0f 93       	push	r16
     18e:	1f 93       	push	r17
     190:	cf 93       	push	r28
     192:	df 93       	push	r29
     194:	c8 2f       	mov	r28, r24
     196:	e6 2e       	mov	r14, r22
     198:	d4 2e       	mov	r13, r20
     19a:	02 2f       	mov	r16, r18
     19c:	13 2f       	mov	r17, r19
     19e:	f8 94       	cli
     1a0:	23 d1       	rcall	.+582    	; 0x3e8 <send_mode>
     1a2:	e0 ec       	ldi	r30, 0xC0	; 192
     1a4:	f0 e0       	ldi	r31, 0x00	; 0
     1a6:	80 81       	ld	r24, Z
     1a8:	80 83       	st	Z, r24
     1aa:	8f ef       	ldi	r24, 0xFF	; 255
     1ac:	2c d1       	rcall	.+600    	; 0x406 <uart_transmit>
     1ae:	8f ef       	ldi	r24, 0xFF	; 255
     1b0:	2a d1       	rcall	.+596    	; 0x406 <uart_transmit>
     1b2:	8c 2f       	mov	r24, r28
     1b4:	28 d1       	rcall	.+592    	; 0x406 <uart_transmit>
     1b6:	82 e0       	ldi	r24, 0x02	; 2
     1b8:	8d 0d       	add	r24, r13
     1ba:	25 d1       	rcall	.+586    	; 0x406 <uart_transmit>
     1bc:	8e 2d       	mov	r24, r14
     1be:	23 d1       	rcall	.+582    	; 0x406 <uart_transmit>
     1c0:	e3 94       	inc	r14
     1c2:	e3 94       	inc	r14
     1c4:	ed 0c       	add	r14, r13
     1c6:	ec 0e       	add	r14, r28
     1c8:	dd 20       	and	r13, r13
     1ca:	61 f0       	breq	.+24     	; 0x1e4 <send_servo_command+0x5e>
     1cc:	c0 2f       	mov	r28, r16
     1ce:	d1 2f       	mov	r29, r17
     1d0:	f1 2c       	mov	r15, r1
     1d2:	8e 01       	movw	r16, r28
     1d4:	89 91       	ld	r24, Y+
     1d6:	17 d1       	rcall	.+558    	; 0x406 <uart_transmit>
     1d8:	f8 01       	movw	r30, r16
     1da:	80 81       	ld	r24, Z
     1dc:	e8 0e       	add	r14, r24
     1de:	f3 94       	inc	r15
     1e0:	fd 10       	cpse	r15, r13
     1e2:	f7 cf       	rjmp	.-18     	; 0x1d2 <send_servo_command+0x4c>
     1e4:	8e 2d       	mov	r24, r14
     1e6:	80 95       	com	r24
     1e8:	0e d1       	rcall	.+540    	; 0x406 <uart_transmit>
     1ea:	e0 ec       	ldi	r30, 0xC0	; 192
     1ec:	f0 e0       	ldi	r31, 0x00	; 0
     1ee:	80 81       	ld	r24, Z
     1f0:	86 ff       	sbrs	r24, 6
     1f2:	fd cf       	rjmp	.-6      	; 0x1ee <send_servo_command+0x68>
     1f4:	f5 d0       	rcall	.+490    	; 0x3e0 <recieve_mode>
     1f6:	78 94       	sei
     1f8:	df 91       	pop	r29
     1fa:	cf 91       	pop	r28
     1fc:	1f 91       	pop	r17
     1fe:	0f 91       	pop	r16
     200:	ff 90       	pop	r15
     202:	ef 90       	pop	r14
     204:	df 90       	pop	r13
     206:	08 95       	ret

00000208 <set_servo_status_return_level>:
     208:	cf 93       	push	r28
     20a:	df 93       	push	r29
     20c:	00 d0       	rcall	.+0      	; 0x20e <set_servo_status_return_level+0x6>
     20e:	cd b7       	in	r28, 0x3d	; 61
     210:	de b7       	in	r29, 0x3e	; 62
     212:	90 e1       	ldi	r25, 0x10	; 16
     214:	99 83       	std	Y+1, r25	; 0x01
     216:	6a 83       	std	Y+2, r22	; 0x02
     218:	9e 01       	movw	r18, r28
     21a:	2f 5f       	subi	r18, 0xFF	; 255
     21c:	3f 4f       	sbci	r19, 0xFF	; 255
     21e:	42 e0       	ldi	r20, 0x02	; 2
     220:	63 e0       	ldi	r22, 0x03	; 3
     222:	b1 df       	rcall	.-158    	; 0x186 <send_servo_command>
     224:	0f 90       	pop	r0
     226:	0f 90       	pop	r0
     228:	df 91       	pop	r29
     22a:	cf 91       	pop	r28
     22c:	08 95       	ret

0000022e <set_servo_max_speed>:
     22e:	cf 93       	push	r28
     230:	df 93       	push	r29
     232:	00 d0       	rcall	.+0      	; 0x234 <set_servo_max_speed+0x6>
     234:	1f 92       	push	r1
     236:	cd b7       	in	r28, 0x3d	; 61
     238:	de b7       	in	r29, 0x3e	; 62
     23a:	90 e2       	ldi	r25, 0x20	; 32
     23c:	99 83       	std	Y+1, r25	; 0x01
     23e:	6a 83       	std	Y+2, r22	; 0x02
     240:	7b 83       	std	Y+3, r23	; 0x03
     242:	9e 01       	movw	r18, r28
     244:	2f 5f       	subi	r18, 0xFF	; 255
     246:	3f 4f       	sbci	r19, 0xFF	; 255
     248:	43 e0       	ldi	r20, 0x03	; 3
     24a:	63 e0       	ldi	r22, 0x03	; 3
     24c:	9c df       	rcall	.-200    	; 0x186 <send_servo_command>
     24e:	0f 90       	pop	r0
     250:	0f 90       	pop	r0
     252:	0f 90       	pop	r0
     254:	df 91       	pop	r29
     256:	cf 91       	pop	r28
     258:	08 95       	ret

0000025a <set_servo_torque>:
     25a:	cf 93       	push	r28
     25c:	df 93       	push	r29
     25e:	00 d0       	rcall	.+0      	; 0x260 <set_servo_torque+0x6>
     260:	1f 92       	push	r1
     262:	cd b7       	in	r28, 0x3d	; 61
     264:	de b7       	in	r29, 0x3e	; 62
     266:	9e e0       	ldi	r25, 0x0E	; 14
     268:	99 83       	std	Y+1, r25	; 0x01
     26a:	6a 83       	std	Y+2, r22	; 0x02
     26c:	7b 83       	std	Y+3, r23	; 0x03
     26e:	9e 01       	movw	r18, r28
     270:	2f 5f       	subi	r18, 0xFF	; 255
     272:	3f 4f       	sbci	r19, 0xFF	; 255
     274:	43 e0       	ldi	r20, 0x03	; 3
     276:	63 e0       	ldi	r22, 0x03	; 3
     278:	86 df       	rcall	.-244    	; 0x186 <send_servo_command>
     27a:	0f 90       	pop	r0
     27c:	0f 90       	pop	r0
     27e:	0f 90       	pop	r0
     280:	df 91       	pop	r29
     282:	cf 91       	pop	r28
     284:	08 95       	ret

00000286 <reg_servo_angle>:
     286:	1f 93       	push	r17
     288:	cf 93       	push	r28
     28a:	df 93       	push	r29
     28c:	00 d0       	rcall	.+0      	; 0x28e <reg_servo_angle+0x8>
     28e:	1f 92       	push	r1
     290:	cd b7       	in	r28, 0x3d	; 61
     292:	de b7       	in	r29, 0x3e	; 62
     294:	18 2f       	mov	r17, r24
     296:	cb 01       	movw	r24, r22
     298:	ba 01       	movw	r22, r20
     29a:	21 e7       	ldi	r18, 0x71	; 113
     29c:	3d e3       	ldi	r19, 0x3D	; 61
     29e:	4a e5       	ldi	r20, 0x5A	; 90
     2a0:	50 e4       	ldi	r21, 0x40	; 64
     2a2:	0e 94 98 1c 	call	0x3930	; 0x3930 <__mulsf3>
     2a6:	0e 94 43 1c 	call	0x3886	; 0x3886 <__fixunssfsi>
     2aa:	8e e1       	ldi	r24, 0x1E	; 30
     2ac:	89 83       	std	Y+1, r24	; 0x01
     2ae:	6a 83       	std	Y+2, r22	; 0x02
     2b0:	7b 83       	std	Y+3, r23	; 0x03
     2b2:	9e 01       	movw	r18, r28
     2b4:	2f 5f       	subi	r18, 0xFF	; 255
     2b6:	3f 4f       	sbci	r19, 0xFF	; 255
     2b8:	43 e0       	ldi	r20, 0x03	; 3
     2ba:	64 e0       	ldi	r22, 0x04	; 4
     2bc:	81 2f       	mov	r24, r17
     2be:	63 df       	rcall	.-314    	; 0x186 <send_servo_command>
     2c0:	0f 90       	pop	r0
     2c2:	0f 90       	pop	r0
     2c4:	0f 90       	pop	r0
     2c6:	df 91       	pop	r29
     2c8:	cf 91       	pop	r28
     2ca:	1f 91       	pop	r17
     2cc:	08 95       	ret

000002ce <set_servo_max_temp>:
     2ce:	cf 93       	push	r28
     2d0:	df 93       	push	r29
     2d2:	00 d0       	rcall	.+0      	; 0x2d4 <set_servo_max_temp+0x6>
     2d4:	cd b7       	in	r28, 0x3d	; 61
     2d6:	de b7       	in	r29, 0x3e	; 62
     2d8:	9b e0       	ldi	r25, 0x0B	; 11
     2da:	99 83       	std	Y+1, r25	; 0x01
     2dc:	6a 83       	std	Y+2, r22	; 0x02
     2de:	9e 01       	movw	r18, r28
     2e0:	2f 5f       	subi	r18, 0xFF	; 255
     2e2:	3f 4f       	sbci	r19, 0xFF	; 255
     2e4:	42 e0       	ldi	r20, 0x02	; 2
     2e6:	63 e0       	ldi	r22, 0x03	; 3
     2e8:	4e df       	rcall	.-356    	; 0x186 <send_servo_command>
     2ea:	0f 90       	pop	r0
     2ec:	0f 90       	pop	r0
     2ee:	df 91       	pop	r29
     2f0:	cf 91       	pop	r28
     2f2:	08 95       	ret

000002f4 <set_alarm_shutdown>:
     2f4:	cf 93       	push	r28
     2f6:	df 93       	push	r29
     2f8:	00 d0       	rcall	.+0      	; 0x2fa <set_alarm_shutdown+0x6>
     2fa:	cd b7       	in	r28, 0x3d	; 61
     2fc:	de b7       	in	r29, 0x3e	; 62
     2fe:	92 e1       	ldi	r25, 0x12	; 18
     300:	99 83       	std	Y+1, r25	; 0x01
     302:	6a 83       	std	Y+2, r22	; 0x02
     304:	9e 01       	movw	r18, r28
     306:	2f 5f       	subi	r18, 0xFF	; 255
     308:	3f 4f       	sbci	r19, 0xFF	; 255
     30a:	42 e0       	ldi	r20, 0x02	; 2
     30c:	63 e0       	ldi	r22, 0x03	; 3
     30e:	3b df       	rcall	.-394    	; 0x186 <send_servo_command>
     310:	0f 90       	pop	r0
     312:	0f 90       	pop	r0
     314:	df 91       	pop	r29
     316:	cf 91       	pop	r28
     318:	08 95       	ret

0000031a <set_alarm_led>:
     31a:	cf 93       	push	r28
     31c:	df 93       	push	r29
     31e:	00 d0       	rcall	.+0      	; 0x320 <set_alarm_led+0x6>
     320:	cd b7       	in	r28, 0x3d	; 61
     322:	de b7       	in	r29, 0x3e	; 62
     324:	91 e1       	ldi	r25, 0x11	; 17
     326:	99 83       	std	Y+1, r25	; 0x01
     328:	6a 83       	std	Y+2, r22	; 0x02
     32a:	9e 01       	movw	r18, r28
     32c:	2f 5f       	subi	r18, 0xFF	; 255
     32e:	3f 4f       	sbci	r19, 0xFF	; 255
     330:	42 e0       	ldi	r20, 0x02	; 2
     332:	63 e0       	ldi	r22, 0x03	; 3
     334:	28 df       	rcall	.-432    	; 0x186 <send_servo_command>
     336:	0f 90       	pop	r0
     338:	0f 90       	pop	r0
     33a:	df 91       	pop	r29
     33c:	cf 91       	pop	r28
     33e:	08 95       	ret

00000340 <set_torque_enable>:
     340:	cf 93       	push	r28
     342:	df 93       	push	r29
     344:	00 d0       	rcall	.+0      	; 0x346 <set_torque_enable+0x6>
     346:	cd b7       	in	r28, 0x3d	; 61
     348:	de b7       	in	r29, 0x3e	; 62
     34a:	98 e1       	ldi	r25, 0x18	; 24
     34c:	99 83       	std	Y+1, r25	; 0x01
     34e:	6a 83       	std	Y+2, r22	; 0x02
     350:	9e 01       	movw	r18, r28
     352:	2f 5f       	subi	r18, 0xFF	; 255
     354:	3f 4f       	sbci	r19, 0xFF	; 255
     356:	42 e0       	ldi	r20, 0x02	; 2
     358:	63 e0       	ldi	r22, 0x03	; 3
     35a:	15 df       	rcall	.-470    	; 0x186 <send_servo_command>
     35c:	0f 90       	pop	r0
     35e:	0f 90       	pop	r0
     360:	df 91       	pop	r29
     362:	cf 91       	pop	r28
     364:	08 95       	ret

00000366 <action>:


//Utför de instruktioner som servona har laddats med
void action(void)
{
     366:	cf 93       	push	r28
     368:	df 93       	push	r29
     36a:	1f 92       	push	r1
     36c:	cd b7       	in	r28, 0x3d	; 61
     36e:	de b7       	in	r29, 0x3e	; 62
	uint8_t params[1] = {0};
     370:	19 82       	std	Y+1, r1	; 0x01
	send_servo_command (0xfe, ACTION, 0, params);
     372:	9e 01       	movw	r18, r28
     374:	2f 5f       	subi	r18, 0xFF	; 255
     376:	3f 4f       	sbci	r19, 0xFF	; 255
     378:	40 e0       	ldi	r20, 0x00	; 0
     37a:	65 e0       	ldi	r22, 0x05	; 5
     37c:	8e ef       	ldi	r24, 0xFE	; 254
     37e:	03 df       	rcall	.-506    	; 0x186 <send_servo_command>
}
     380:	0f 90       	pop	r0
     382:	df 91       	pop	r29
     384:	cf 91       	pop	r28
     386:	08 95       	ret

00000388 <servo_init>:
************************************************************************************************************/

//Initiera standardinställningar för servona
void servo_init(void)
{
	set_servo_status_return_level(0xfe, 0x00);
     388:	60 e0       	ldi	r22, 0x00	; 0
     38a:	8e ef       	ldi	r24, 0xFE	; 254
     38c:	3d df       	rcall	.-390    	; 0x208 <set_servo_status_return_level>
	set_servo_torque(0xfe, 800);
     38e:	60 e2       	ldi	r22, 0x20	; 32
     390:	73 e0       	ldi	r23, 0x03	; 3
     392:	8e ef       	ldi	r24, 0xFE	; 254
     394:	62 df       	rcall	.-316    	; 0x25a <set_servo_torque>
	set_servo_max_speed(0xfe, 150);
     396:	66 e9       	ldi	r22, 0x96	; 150
     398:	70 e0       	ldi	r23, 0x00	; 0
     39a:	8e ef       	ldi	r24, 0xFE	; 254
     39c:	48 df       	rcall	.-368    	; 0x22e <set_servo_max_speed>
	set_servo_max_temp(0xfe, 70);
     39e:	66 e4       	ldi	r22, 0x46	; 70
     3a0:	70 e0       	ldi	r23, 0x00	; 0
     3a2:	8e ef       	ldi	r24, 0xFE	; 254
     3a4:	94 df       	rcall	.-216    	; 0x2ce <set_servo_max_temp>
	set_alarm_shutdown(0xfe, 7); 
     3a6:	67 e0       	ldi	r22, 0x07	; 7
     3a8:	70 e0       	ldi	r23, 0x00	; 0
     3aa:	8e ef       	ldi	r24, 0xFE	; 254
     3ac:	a3 df       	rcall	.-186    	; 0x2f4 <set_alarm_shutdown>
	set_alarm_led(0xfe, 4);
     3ae:	64 e0       	ldi	r22, 0x04	; 4
     3b0:	70 e0       	ldi	r23, 0x00	; 0
     3b2:	8e ef       	ldi	r24, 0xFE	; 254
     3b4:	b2 df       	rcall	.-156    	; 0x31a <set_alarm_led>
	set_torque_enable(0xfe, 1);
     3b6:	61 e0       	ldi	r22, 0x01	; 1
     3b8:	70 e0       	ldi	r23, 0x00	; 0
     3ba:	8e ef       	ldi	r24, 0xFE	; 254
     3bc:	c1 cf       	rjmp	.-126    	; 0x340 <set_torque_enable>
     3be:	08 95       	ret

000003c0 <spi_init>:

#include "spi_slave.h"

void spi_init(void)
{
	SPCR |= (1 << SPIE);
     3c0:	8c b5       	in	r24, 0x2c	; 44
     3c2:	80 68       	ori	r24, 0x80	; 128
     3c4:	8c bd       	out	0x2c, r24	; 44
	SPCR |= (1 << SPE);  //Enable SPI
     3c6:	8c b5       	in	r24, 0x2c	; 44
     3c8:	80 64       	ori	r24, 0x40	; 64
     3ca:	8c bd       	out	0x2c, r24	; 44
     3cc:	08 95       	ret

000003ce <spi_tranceiver>:
}

//Function to send and receive data
unsigned char spi_tranceiver (unsigned char indata)
{	
	SPDR = indata;											//Load data into buffer
     3ce:	8e bd       	out	0x2e, r24	; 46
	while(!(SPSR & (1 << SPIF)));							//Wait until transmission complete
     3d0:	0d b4       	in	r0, 0x2d	; 45
     3d2:	07 fe       	sbrs	r0, 7
     3d4:	fd cf       	rjmp	.-6      	; 0x3d0 <spi_tranceiver+0x2>
	return SPDR;											//Return received data
     3d6:	8e b5       	in	r24, 0x2e	; 46
}
     3d8:	08 95       	ret

000003da <data_direction_init>:

void data_direction_init(void)
{
	DDRB = (1<<DDB0)|(1<<DDB1)|(1<<DDB2)|(1<<DDB6);			//Set PB0, PB1, PB2 and PB6 (MISO) as outputs	
     3da:	87 e4       	ldi	r24, 0x47	; 71
     3dc:	84 b9       	out	0x04, r24	; 4
     3de:	08 95       	ret

000003e0 <recieve_mode>:
﻿#include "uart.h"

//Startar Recieve Mode
void recieve_mode(void)
{
	UCSR0B = (0<<TXEN0)|(1<<RXEN0);
     3e0:	80 e1       	ldi	r24, 0x10	; 16
     3e2:	80 93 c1 00 	sts	0x00C1, r24
     3e6:	08 95       	ret

000003e8 <send_mode>:
}

//Startar Send Mode
void send_mode(void)
{
	UCSR0B = (1<<TXEN0)|(0<<RXEN0);
     3e8:	88 e0       	ldi	r24, 0x08	; 8
     3ea:	80 93 c1 00 	sts	0x00C1, r24
     3ee:	08 95       	ret

000003f0 <uart_init>:
}

//Initiera UART
void uart_init(void)
{
	UBRR0H = (unsigned char)(BAUDRATE>>8);							//Skifta registret 8 bitar åt höger
     3f0:	10 92 c5 00 	sts	0x00C5, r1
	UBRR0L = (unsigned char)BAUDRATE;							//Sätt baudrate
     3f4:	10 92 c4 00 	sts	0x00C4, r1
	UCSR0C = (0<<USBS0)|(1<<UCSZ00)|(1<<UCSZ01)|(0<<UPM01);			//Sätter 1 stoppbit, samt 8-bitars dataformat
     3f8:	86 e0       	ldi	r24, 0x06	; 6
     3fa:	80 93 c2 00 	sts	0x00C2, r24
﻿#include "uart.h"

//Startar Recieve Mode
void recieve_mode(void)
{
	UCSR0B = (0<<TXEN0)|(1<<RXEN0);
     3fe:	80 e1       	ldi	r24, 0x10	; 16
     400:	80 93 c1 00 	sts	0x00C1, r24
     404:	08 95       	ret

00000406 <uart_transmit>:
}

//Skicka med UART
void uart_transmit(unsigned char data)
{
	while(!(UCSR0A & (1<<UDRE0)));									//Väntar på att "transmit-buffern" ska bli tom genom att kolla UDREn-flaggan
     406:	e0 ec       	ldi	r30, 0xC0	; 192
     408:	f0 e0       	ldi	r31, 0x00	; 0
     40a:	90 81       	ld	r25, Z
     40c:	95 ff       	sbrs	r25, 5
     40e:	fd cf       	rjmp	.-6      	; 0x40a <uart_transmit+0x4>
	UDR0 = data;												    //Ladda in datan i registret (UDR = Uart Data Register)
     410:	80 93 c6 00 	sts	0x00C6, r24
     414:	08 95       	ret

00000416 <stand>:
{
	for(int i = 0; i < 4; i++)
	{
		forward();
	}
	rot_right();
     416:	40 e0       	ldi	r20, 0x00	; 0
     418:	50 e0       	ldi	r21, 0x00	; 0
     41a:	66 e1       	ldi	r22, 0x16	; 22
     41c:	73 e4       	ldi	r23, 0x43	; 67
     41e:	80 e0       	ldi	r24, 0x00	; 0
     420:	32 df       	rcall	.-412    	; 0x286 <reg_servo_angle>
     422:	40 e0       	ldi	r20, 0x00	; 0
     424:	50 e0       	ldi	r21, 0x00	; 0
     426:	66 e1       	ldi	r22, 0x16	; 22
     428:	73 e4       	ldi	r23, 0x43	; 67
     42a:	83 e0       	ldi	r24, 0x03	; 3
     42c:	2c df       	rcall	.-424    	; 0x286 <reg_servo_angle>
     42e:	40 e0       	ldi	r20, 0x00	; 0
     430:	50 e0       	ldi	r21, 0x00	; 0
     432:	66 e1       	ldi	r22, 0x16	; 22
     434:	73 e4       	ldi	r23, 0x43	; 67
     436:	86 e0       	ldi	r24, 0x06	; 6
     438:	26 df       	rcall	.-436    	; 0x286 <reg_servo_angle>
     43a:	40 e0       	ldi	r20, 0x00	; 0
     43c:	50 e0       	ldi	r21, 0x00	; 0
     43e:	66 e1       	ldi	r22, 0x16	; 22
     440:	73 e4       	ldi	r23, 0x43	; 67
     442:	89 e0       	ldi	r24, 0x09	; 9
     444:	20 df       	rcall	.-448    	; 0x286 <reg_servo_angle>
     446:	40 e0       	ldi	r20, 0x00	; 0
     448:	50 e0       	ldi	r21, 0x00	; 0
     44a:	66 e1       	ldi	r22, 0x16	; 22
     44c:	73 e4       	ldi	r23, 0x43	; 67
     44e:	8c e0       	ldi	r24, 0x0C	; 12
     450:	1a df       	rcall	.-460    	; 0x286 <reg_servo_angle>
     452:	40 e0       	ldi	r20, 0x00	; 0
     454:	50 e0       	ldi	r21, 0x00	; 0
     456:	66 e1       	ldi	r22, 0x16	; 22
     458:	73 e4       	ldi	r23, 0x43	; 67
     45a:	8f e0       	ldi	r24, 0x0F	; 15
     45c:	14 df       	rcall	.-472    	; 0x286 <reg_servo_angle>
     45e:	40 e0       	ldi	r20, 0x00	; 0
     460:	50 e0       	ldi	r21, 0x00	; 0
     462:	64 eb       	ldi	r22, 0xB4	; 180
     464:	72 e4       	ldi	r23, 0x42	; 66
     466:	81 e0       	ldi	r24, 0x01	; 1
     468:	0e df       	rcall	.-484    	; 0x286 <reg_servo_angle>
     46a:	40 e0       	ldi	r20, 0x00	; 0
     46c:	50 e0       	ldi	r21, 0x00	; 0
     46e:	64 eb       	ldi	r22, 0xB4	; 180
     470:	72 e4       	ldi	r23, 0x42	; 66
     472:	84 e0       	ldi	r24, 0x04	; 4
     474:	08 df       	rcall	.-496    	; 0x286 <reg_servo_angle>
     476:	40 e0       	ldi	r20, 0x00	; 0
     478:	50 e0       	ldi	r21, 0x00	; 0
     47a:	64 eb       	ldi	r22, 0xB4	; 180
     47c:	72 e4       	ldi	r23, 0x42	; 66
     47e:	87 e0       	ldi	r24, 0x07	; 7
     480:	02 df       	rcall	.-508    	; 0x286 <reg_servo_angle>
     482:	40 e0       	ldi	r20, 0x00	; 0
     484:	50 e0       	ldi	r21, 0x00	; 0
     486:	62 e5       	ldi	r22, 0x52	; 82
     488:	73 e4       	ldi	r23, 0x43	; 67
     48a:	8a e0       	ldi	r24, 0x0A	; 10
     48c:	fc de       	rcall	.-520    	; 0x286 <reg_servo_angle>
     48e:	40 e0       	ldi	r20, 0x00	; 0
     490:	50 e0       	ldi	r21, 0x00	; 0
     492:	62 e5       	ldi	r22, 0x52	; 82
     494:	73 e4       	ldi	r23, 0x43	; 67
     496:	8d e0       	ldi	r24, 0x0D	; 13
     498:	f6 de       	rcall	.-532    	; 0x286 <reg_servo_angle>
     49a:	40 e0       	ldi	r20, 0x00	; 0
     49c:	50 e0       	ldi	r21, 0x00	; 0
     49e:	62 e5       	ldi	r22, 0x52	; 82
     4a0:	73 e4       	ldi	r23, 0x43	; 67
     4a2:	80 e1       	ldi	r24, 0x10	; 16
     4a4:	f0 de       	rcall	.-544    	; 0x286 <reg_servo_angle>
     4a6:	40 e0       	ldi	r20, 0x00	; 0
     4a8:	50 e0       	ldi	r21, 0x00	; 0
     4aa:	66 e6       	ldi	r22, 0x66	; 102
     4ac:	73 e4       	ldi	r23, 0x43	; 67
     4ae:	82 e0       	ldi	r24, 0x02	; 2
     4b0:	ea de       	rcall	.-556    	; 0x286 <reg_servo_angle>
     4b2:	40 e0       	ldi	r20, 0x00	; 0
     4b4:	50 e0       	ldi	r21, 0x00	; 0
     4b6:	66 e6       	ldi	r22, 0x66	; 102
     4b8:	73 e4       	ldi	r23, 0x43	; 67
     4ba:	85 e0       	ldi	r24, 0x05	; 5
     4bc:	e4 de       	rcall	.-568    	; 0x286 <reg_servo_angle>
     4be:	40 e0       	ldi	r20, 0x00	; 0
     4c0:	50 e0       	ldi	r21, 0x00	; 0
     4c2:	66 e6       	ldi	r22, 0x66	; 102
     4c4:	73 e4       	ldi	r23, 0x43	; 67
     4c6:	88 e0       	ldi	r24, 0x08	; 8
     4c8:	de de       	rcall	.-580    	; 0x286 <reg_servo_angle>
     4ca:	40 e0       	ldi	r20, 0x00	; 0
     4cc:	50 e0       	ldi	r21, 0x00	; 0
     4ce:	6c e8       	ldi	r22, 0x8C	; 140
     4d0:	72 e4       	ldi	r23, 0x42	; 66
     4d2:	8b e0       	ldi	r24, 0x0B	; 11
     4d4:	d8 de       	rcall	.-592    	; 0x286 <reg_servo_angle>
     4d6:	40 e0       	ldi	r20, 0x00	; 0
     4d8:	50 e0       	ldi	r21, 0x00	; 0
     4da:	6c e8       	ldi	r22, 0x8C	; 140
     4dc:	72 e4       	ldi	r23, 0x42	; 66
     4de:	8e e0       	ldi	r24, 0x0E	; 14
     4e0:	d2 de       	rcall	.-604    	; 0x286 <reg_servo_angle>
     4e2:	40 e0       	ldi	r20, 0x00	; 0
     4e4:	50 e0       	ldi	r21, 0x00	; 0
     4e6:	6c e8       	ldi	r22, 0x8C	; 140
     4e8:	72 e4       	ldi	r23, 0x42	; 66
     4ea:	81 e1       	ldi	r24, 0x11	; 17
     4ec:	cc de       	rcall	.-616    	; 0x286 <reg_servo_angle>
     4ee:	3b cf       	rjmp	.-394    	; 0x366 <action>
     4f0:	08 95       	ret

000004f2 <one_forward>:
     4f2:	40 e0       	ldi	r20, 0x00	; 0
     4f4:	50 e0       	ldi	r21, 0x00	; 0
     4f6:	6d e1       	ldi	r22, 0x1D	; 29
     4f8:	73 e4       	ldi	r23, 0x43	; 67
     4fa:	86 e0       	ldi	r24, 0x06	; 6
     4fc:	c4 de       	rcall	.-632    	; 0x286 <reg_servo_angle>
     4fe:	40 e0       	ldi	r20, 0x00	; 0
     500:	50 e0       	ldi	r21, 0x00	; 0
     502:	6e ec       	ldi	r22, 0xCE	; 206
     504:	72 e4       	ldi	r23, 0x42	; 66
     506:	87 e0       	ldi	r24, 0x07	; 7
     508:	be de       	rcall	.-644    	; 0x286 <reg_servo_angle>
     50a:	40 e0       	ldi	r20, 0x00	; 0
     50c:	50 e0       	ldi	r21, 0x00	; 0
     50e:	6e e4       	ldi	r22, 0x4E	; 78
     510:	73 e4       	ldi	r23, 0x43	; 67
     512:	88 e0       	ldi	r24, 0x08	; 8
     514:	b8 de       	rcall	.-656    	; 0x286 <reg_servo_angle>
     516:	40 e0       	ldi	r20, 0x00	; 0
     518:	50 e0       	ldi	r21, 0x00	; 0
     51a:	69 e1       	ldi	r22, 0x19	; 25
     51c:	73 e4       	ldi	r23, 0x43	; 67
     51e:	89 e0       	ldi	r24, 0x09	; 9
     520:	b2 de       	rcall	.-668    	; 0x286 <reg_servo_angle>
     522:	40 e0       	ldi	r20, 0x00	; 0
     524:	50 e0       	ldi	r21, 0x00	; 0
     526:	63 e6       	ldi	r22, 0x63	; 99
     528:	73 e4       	ldi	r23, 0x43	; 67
     52a:	8a e0       	ldi	r24, 0x0A	; 10
     52c:	ac de       	rcall	.-680    	; 0x286 <reg_servo_angle>
     52e:	40 e0       	ldi	r20, 0x00	; 0
     530:	50 e0       	ldi	r21, 0x00	; 0
     532:	68 e7       	ldi	r22, 0x78	; 120
     534:	72 e4       	ldi	r23, 0x42	; 66
     536:	8b e0       	ldi	r24, 0x0B	; 11
     538:	a6 de       	rcall	.-692    	; 0x286 <reg_servo_angle>
     53a:	40 e0       	ldi	r20, 0x00	; 0
     53c:	50 e0       	ldi	r21, 0x00	; 0
     53e:	6e e0       	ldi	r22, 0x0E	; 14
     540:	73 e4       	ldi	r23, 0x43	; 67
     542:	83 e0       	ldi	r24, 0x03	; 3
     544:	a0 de       	rcall	.-704    	; 0x286 <reg_servo_angle>
     546:	40 e0       	ldi	r20, 0x00	; 0
     548:	50 e0       	ldi	r21, 0x00	; 0
     54a:	66 e9       	ldi	r22, 0x96	; 150
     54c:	72 e4       	ldi	r23, 0x42	; 66
     54e:	84 e0       	ldi	r24, 0x04	; 4
     550:	9a de       	rcall	.-716    	; 0x286 <reg_servo_angle>
     552:	40 e0       	ldi	r20, 0x00	; 0
     554:	50 e0       	ldi	r21, 0x00	; 0
     556:	6c e6       	ldi	r22, 0x6C	; 108
     558:	73 e4       	ldi	r23, 0x43	; 67
     55a:	85 e0       	ldi	r24, 0x05	; 5
     55c:	94 de       	rcall	.-728    	; 0x286 <reg_servo_angle>
     55e:	40 e0       	ldi	r20, 0x00	; 0
     560:	50 e0       	ldi	r21, 0x00	; 0
     562:	6e e0       	ldi	r22, 0x0E	; 14
     564:	73 e4       	ldi	r23, 0x43	; 67
     566:	8c e0       	ldi	r24, 0x0C	; 12
     568:	8e de       	rcall	.-740    	; 0x286 <reg_servo_angle>
     56a:	40 e0       	ldi	r20, 0x00	; 0
     56c:	50 e0       	ldi	r21, 0x00	; 0
     56e:	6f e4       	ldi	r22, 0x4F	; 79
     570:	73 e4       	ldi	r23, 0x43	; 67
     572:	8d e0       	ldi	r24, 0x0D	; 13
     574:	88 de       	rcall	.-752    	; 0x286 <reg_servo_angle>
     576:	40 e0       	ldi	r20, 0x00	; 0
     578:	50 e0       	ldi	r21, 0x00	; 0
     57a:	64 e9       	ldi	r22, 0x94	; 148
     57c:	72 e4       	ldi	r23, 0x42	; 66
     57e:	8e e0       	ldi	r24, 0x0E	; 14
     580:	82 de       	rcall	.-764    	; 0x286 <reg_servo_angle>
     582:	40 e0       	ldi	r20, 0x00	; 0
     584:	50 e0       	ldi	r21, 0x00	; 0
     586:	69 e1       	ldi	r22, 0x19	; 25
     588:	73 e4       	ldi	r23, 0x43	; 67
     58a:	80 e0       	ldi	r24, 0x00	; 0
     58c:	7c de       	rcall	.-776    	; 0x286 <reg_servo_angle>
     58e:	40 e0       	ldi	r20, 0x00	; 0
     590:	50 e0       	ldi	r21, 0x00	; 0
     592:	68 eb       	ldi	r22, 0xB8	; 184
     594:	72 e4       	ldi	r23, 0x42	; 66
     596:	81 e0       	ldi	r24, 0x01	; 1
     598:	76 de       	rcall	.-788    	; 0x286 <reg_servo_angle>
     59a:	40 e0       	ldi	r20, 0x00	; 0
     59c:	50 e0       	ldi	r21, 0x00	; 0
     59e:	63 e6       	ldi	r22, 0x63	; 99
     5a0:	73 e4       	ldi	r23, 0x43	; 67
     5a2:	82 e0       	ldi	r24, 0x02	; 2
     5a4:	70 de       	rcall	.-800    	; 0x286 <reg_servo_angle>
     5a6:	40 e0       	ldi	r20, 0x00	; 0
     5a8:	50 e0       	ldi	r21, 0x00	; 0
     5aa:	6d e1       	ldi	r22, 0x1D	; 29
     5ac:	73 e4       	ldi	r23, 0x43	; 67
     5ae:	8f e0       	ldi	r24, 0x0F	; 15
     5b0:	6a de       	rcall	.-812    	; 0x286 <reg_servo_angle>
     5b2:	40 e0       	ldi	r20, 0x00	; 0
     5b4:	50 e0       	ldi	r21, 0x00	; 0
     5b6:	64 e5       	ldi	r22, 0x54	; 84
     5b8:	73 e4       	ldi	r23, 0x43	; 67
     5ba:	80 e1       	ldi	r24, 0x10	; 16
     5bc:	64 de       	rcall	.-824    	; 0x286 <reg_servo_angle>
     5be:	40 e0       	ldi	r20, 0x00	; 0
     5c0:	50 e0       	ldi	r21, 0x00	; 0
     5c2:	6a ea       	ldi	r22, 0xAA	; 170
     5c4:	72 e4       	ldi	r23, 0x42	; 66
     5c6:	81 e1       	ldi	r24, 0x11	; 17
     5c8:	5e de       	rcall	.-836    	; 0x286 <reg_servo_angle>
     5ca:	2f ef       	ldi	r18, 0xFF	; 255
     5cc:	87 ee       	ldi	r24, 0xE7	; 231
     5ce:	93 e0       	ldi	r25, 0x03	; 3
     5d0:	21 50       	subi	r18, 0x01	; 1
     5d2:	80 40       	sbci	r24, 0x00	; 0
     5d4:	90 40       	sbci	r25, 0x00	; 0
     5d6:	e1 f7       	brne	.-8      	; 0x5d0 <one_forward+0xde>
     5d8:	00 c0       	rjmp	.+0      	; 0x5da <one_forward+0xe8>
     5da:	00 00       	nop
     5dc:	c4 ce       	rjmp	.-632    	; 0x366 <action>
     5de:	08 95       	ret

000005e0 <two_forward>:
     5e0:	40 e0       	ldi	r20, 0x00	; 0
     5e2:	50 e0       	ldi	r21, 0x00	; 0
     5e4:	68 e1       	ldi	r22, 0x18	; 24
     5e6:	73 e4       	ldi	r23, 0x43	; 67
     5e8:	86 e0       	ldi	r24, 0x06	; 6
     5ea:	4d de       	rcall	.-870    	; 0x286 <reg_servo_angle>
     5ec:	40 e0       	ldi	r20, 0x00	; 0
     5ee:	50 e0       	ldi	r21, 0x00	; 0
     5f0:	62 ec       	ldi	r22, 0xC2	; 194
     5f2:	72 e4       	ldi	r23, 0x42	; 66
     5f4:	87 e0       	ldi	r24, 0x07	; 7
     5f6:	47 de       	rcall	.-882    	; 0x286 <reg_servo_angle>
     5f8:	40 e0       	ldi	r20, 0x00	; 0
     5fa:	50 e0       	ldi	r21, 0x00	; 0
     5fc:	6a e5       	ldi	r22, 0x5A	; 90
     5fe:	73 e4       	ldi	r23, 0x43	; 67
     600:	88 e0       	ldi	r24, 0x08	; 8
     602:	41 de       	rcall	.-894    	; 0x286 <reg_servo_angle>
     604:	40 e0       	ldi	r20, 0x00	; 0
     606:	50 e0       	ldi	r21, 0x00	; 0
     608:	64 e1       	ldi	r22, 0x14	; 20
     60a:	73 e4       	ldi	r23, 0x43	; 67
     60c:	89 e0       	ldi	r24, 0x09	; 9
     60e:	3b de       	rcall	.-906    	; 0x286 <reg_servo_angle>
     610:	40 e0       	ldi	r20, 0x00	; 0
     612:	50 e0       	ldi	r21, 0x00	; 0
     614:	6c e5       	ldi	r22, 0x5C	; 92
     616:	73 e4       	ldi	r23, 0x43	; 67
     618:	8a e0       	ldi	r24, 0x0A	; 10
     61a:	35 de       	rcall	.-918    	; 0x286 <reg_servo_angle>
     61c:	40 e0       	ldi	r20, 0x00	; 0
     61e:	50 e0       	ldi	r21, 0x00	; 0
     620:	62 e9       	ldi	r22, 0x92	; 146
     622:	72 e4       	ldi	r23, 0x42	; 66
     624:	8b e0       	ldi	r24, 0x0B	; 11
     626:	2f de       	rcall	.-930    	; 0x286 <reg_servo_angle>
     628:	40 e0       	ldi	r20, 0x00	; 0
     62a:	50 e0       	ldi	r21, 0x00	; 0
     62c:	66 e1       	ldi	r22, 0x16	; 22
     62e:	73 e4       	ldi	r23, 0x43	; 67
     630:	83 e0       	ldi	r24, 0x03	; 3
     632:	29 de       	rcall	.-942    	; 0x286 <reg_servo_angle>
     634:	40 e0       	ldi	r20, 0x00	; 0
     636:	50 e0       	ldi	r21, 0x00	; 0
     638:	64 e9       	ldi	r22, 0x94	; 148
     63a:	72 e4       	ldi	r23, 0x42	; 66
     63c:	84 e0       	ldi	r24, 0x04	; 4
     63e:	23 de       	rcall	.-954    	; 0x286 <reg_servo_angle>
     640:	40 e0       	ldi	r20, 0x00	; 0
     642:	50 e0       	ldi	r21, 0x00	; 0
     644:	6d e6       	ldi	r22, 0x6D	; 109
     646:	73 e4       	ldi	r23, 0x43	; 67
     648:	85 e0       	ldi	r24, 0x05	; 5
     64a:	1d de       	rcall	.-966    	; 0x286 <reg_servo_angle>
     64c:	40 e0       	ldi	r20, 0x00	; 0
     64e:	50 e0       	ldi	r21, 0x00	; 0
     650:	66 e1       	ldi	r22, 0x16	; 22
     652:	73 e4       	ldi	r23, 0x43	; 67
     654:	8c e0       	ldi	r24, 0x0C	; 12
     656:	17 de       	rcall	.-978    	; 0x286 <reg_servo_angle>
     658:	40 e0       	ldi	r20, 0x00	; 0
     65a:	50 e0       	ldi	r21, 0x00	; 0
     65c:	60 e5       	ldi	r22, 0x50	; 80
     65e:	73 e4       	ldi	r23, 0x43	; 67
     660:	8d e0       	ldi	r24, 0x0D	; 13
     662:	11 de       	rcall	.-990    	; 0x286 <reg_servo_angle>
     664:	40 e0       	ldi	r20, 0x00	; 0
     666:	50 e0       	ldi	r21, 0x00	; 0
     668:	62 e9       	ldi	r22, 0x92	; 146
     66a:	72 e4       	ldi	r23, 0x42	; 66
     66c:	8e e0       	ldi	r24, 0x0E	; 14
     66e:	0b de       	rcall	.-1002   	; 0x286 <reg_servo_angle>
     670:	40 e0       	ldi	r20, 0x00	; 0
     672:	50 e0       	ldi	r21, 0x00	; 0
     674:	64 e1       	ldi	r22, 0x14	; 20
     676:	73 e4       	ldi	r23, 0x43	; 67
     678:	80 e0       	ldi	r24, 0x00	; 0
     67a:	05 de       	rcall	.-1014   	; 0x286 <reg_servo_angle>
     67c:	40 e0       	ldi	r20, 0x00	; 0
     67e:	50 e0       	ldi	r21, 0x00	; 0
     680:	62 ec       	ldi	r22, 0xC2	; 194
     682:	72 e4       	ldi	r23, 0x42	; 66
     684:	81 e0       	ldi	r24, 0x01	; 1
     686:	ff dd       	rcall	.-1026   	; 0x286 <reg_servo_angle>
     688:	40 e0       	ldi	r20, 0x00	; 0
     68a:	50 e0       	ldi	r21, 0x00	; 0
     68c:	6a e5       	ldi	r22, 0x5A	; 90
     68e:	73 e4       	ldi	r23, 0x43	; 67
     690:	82 e0       	ldi	r24, 0x02	; 2
     692:	f9 dd       	rcall	.-1038   	; 0x286 <reg_servo_angle>
     694:	40 e0       	ldi	r20, 0x00	; 0
     696:	50 e0       	ldi	r21, 0x00	; 0
     698:	68 e1       	ldi	r22, 0x18	; 24
     69a:	73 e4       	ldi	r23, 0x43	; 67
     69c:	8f e0       	ldi	r24, 0x0F	; 15
     69e:	f3 dd       	rcall	.-1050   	; 0x286 <reg_servo_angle>
     6a0:	40 e0       	ldi	r20, 0x00	; 0
     6a2:	50 e0       	ldi	r21, 0x00	; 0
     6a4:	6c e5       	ldi	r22, 0x5C	; 92
     6a6:	73 e4       	ldi	r23, 0x43	; 67
     6a8:	80 e1       	ldi	r24, 0x10	; 16
     6aa:	ed dd       	rcall	.-1062   	; 0x286 <reg_servo_angle>
     6ac:	40 e0       	ldi	r20, 0x00	; 0
     6ae:	50 e0       	ldi	r21, 0x00	; 0
     6b0:	62 e9       	ldi	r22, 0x92	; 146
     6b2:	72 e4       	ldi	r23, 0x42	; 66
     6b4:	81 e1       	ldi	r24, 0x11	; 17
     6b6:	e7 dd       	rcall	.-1074   	; 0x286 <reg_servo_angle>
     6b8:	2f ef       	ldi	r18, 0xFF	; 255
     6ba:	87 ee       	ldi	r24, 0xE7	; 231
     6bc:	93 e0       	ldi	r25, 0x03	; 3
     6be:	21 50       	subi	r18, 0x01	; 1
     6c0:	80 40       	sbci	r24, 0x00	; 0
     6c2:	90 40       	sbci	r25, 0x00	; 0
     6c4:	e1 f7       	brne	.-8      	; 0x6be <two_forward+0xde>
     6c6:	00 c0       	rjmp	.+0      	; 0x6c8 <two_forward+0xe8>
     6c8:	00 00       	nop
     6ca:	4d ce       	rjmp	.-870    	; 0x366 <action>
     6cc:	08 95       	ret

000006ce <three_forward>:
     6ce:	40 e0       	ldi	r20, 0x00	; 0
     6d0:	50 e0       	ldi	r21, 0x00	; 0
     6d2:	63 e1       	ldi	r22, 0x13	; 19
     6d4:	73 e4       	ldi	r23, 0x43	; 67
     6d6:	86 e0       	ldi	r24, 0x06	; 6
     6d8:	d6 dd       	rcall	.-1108   	; 0x286 <reg_servo_angle>
     6da:	40 e0       	ldi	r20, 0x00	; 0
     6dc:	50 e0       	ldi	r21, 0x00	; 0
     6de:	68 eb       	ldi	r22, 0xB8	; 184
     6e0:	72 e4       	ldi	r23, 0x42	; 66
     6e2:	87 e0       	ldi	r24, 0x07	; 7
     6e4:	d0 dd       	rcall	.-1120   	; 0x286 <reg_servo_angle>
     6e6:	40 e0       	ldi	r20, 0x00	; 0
     6e8:	50 e0       	ldi	r21, 0x00	; 0
     6ea:	63 e6       	ldi	r22, 0x63	; 99
     6ec:	73 e4       	ldi	r23, 0x43	; 67
     6ee:	88 e0       	ldi	r24, 0x08	; 8
     6f0:	ca dd       	rcall	.-1132   	; 0x286 <reg_servo_angle>
     6f2:	40 e0       	ldi	r20, 0x00	; 0
     6f4:	50 e0       	ldi	r21, 0x00	; 0
     6f6:	6f e0       	ldi	r22, 0x0F	; 15
     6f8:	73 e4       	ldi	r23, 0x43	; 67
     6fa:	89 e0       	ldi	r24, 0x09	; 9
     6fc:	c4 dd       	rcall	.-1144   	; 0x286 <reg_servo_angle>
     6fe:	40 e0       	ldi	r20, 0x00	; 0
     700:	50 e0       	ldi	r21, 0x00	; 0
     702:	64 e5       	ldi	r22, 0x54	; 84
     704:	73 e4       	ldi	r23, 0x43	; 67
     706:	8a e0       	ldi	r24, 0x0A	; 10
     708:	be dd       	rcall	.-1156   	; 0x286 <reg_servo_angle>
     70a:	40 e0       	ldi	r20, 0x00	; 0
     70c:	50 e0       	ldi	r21, 0x00	; 0
     70e:	6a ea       	ldi	r22, 0xAA	; 170
     710:	72 e4       	ldi	r23, 0x42	; 66
     712:	8b e0       	ldi	r24, 0x0B	; 11
     714:	b8 dd       	rcall	.-1168   	; 0x286 <reg_servo_angle>
     716:	40 e0       	ldi	r20, 0x00	; 0
     718:	50 e0       	ldi	r21, 0x00	; 0
     71a:	6e e1       	ldi	r22, 0x1E	; 30
     71c:	73 e4       	ldi	r23, 0x43	; 67
     71e:	83 e0       	ldi	r24, 0x03	; 3
     720:	b2 dd       	rcall	.-1180   	; 0x286 <reg_servo_angle>
     722:	40 e0       	ldi	r20, 0x00	; 0
     724:	50 e0       	ldi	r21, 0x00	; 0
     726:	66 e9       	ldi	r22, 0x96	; 150
     728:	72 e4       	ldi	r23, 0x42	; 66
     72a:	84 e0       	ldi	r24, 0x04	; 4
     72c:	ac dd       	rcall	.-1192   	; 0x286 <reg_servo_angle>
     72e:	40 e0       	ldi	r20, 0x00	; 0
     730:	50 e0       	ldi	r21, 0x00	; 0
     732:	6c e6       	ldi	r22, 0x6C	; 108
     734:	73 e4       	ldi	r23, 0x43	; 67
     736:	85 e0       	ldi	r24, 0x05	; 5
     738:	a6 dd       	rcall	.-1204   	; 0x286 <reg_servo_angle>
     73a:	40 e0       	ldi	r20, 0x00	; 0
     73c:	50 e0       	ldi	r21, 0x00	; 0
     73e:	6e e1       	ldi	r22, 0x1E	; 30
     740:	73 e4       	ldi	r23, 0x43	; 67
     742:	8c e0       	ldi	r24, 0x0C	; 12
     744:	a0 dd       	rcall	.-1216   	; 0x286 <reg_servo_angle>
     746:	40 e0       	ldi	r20, 0x00	; 0
     748:	50 e0       	ldi	r21, 0x00	; 0
     74a:	6f e4       	ldi	r22, 0x4F	; 79
     74c:	73 e4       	ldi	r23, 0x43	; 67
     74e:	8d e0       	ldi	r24, 0x0D	; 13
     750:	9a dd       	rcall	.-1228   	; 0x286 <reg_servo_angle>
     752:	40 e0       	ldi	r20, 0x00	; 0
     754:	50 e0       	ldi	r21, 0x00	; 0
     756:	64 e9       	ldi	r22, 0x94	; 148
     758:	72 e4       	ldi	r23, 0x42	; 66
     75a:	8e e0       	ldi	r24, 0x0E	; 14
     75c:	94 dd       	rcall	.-1240   	; 0x286 <reg_servo_angle>
     75e:	40 e0       	ldi	r20, 0x00	; 0
     760:	50 e0       	ldi	r21, 0x00	; 0
     762:	6f e0       	ldi	r22, 0x0F	; 15
     764:	73 e4       	ldi	r23, 0x43	; 67
     766:	80 e0       	ldi	r24, 0x00	; 0
     768:	8e dd       	rcall	.-1252   	; 0x286 <reg_servo_angle>
     76a:	40 e0       	ldi	r20, 0x00	; 0
     76c:	50 e0       	ldi	r21, 0x00	; 0
     76e:	6e ec       	ldi	r22, 0xCE	; 206
     770:	72 e4       	ldi	r23, 0x42	; 66
     772:	81 e0       	ldi	r24, 0x01	; 1
     774:	88 dd       	rcall	.-1264   	; 0x286 <reg_servo_angle>
     776:	40 e0       	ldi	r20, 0x00	; 0
     778:	50 e0       	ldi	r21, 0x00	; 0
     77a:	6e e4       	ldi	r22, 0x4E	; 78
     77c:	73 e4       	ldi	r23, 0x43	; 67
     77e:	82 e0       	ldi	r24, 0x02	; 2
     780:	82 dd       	rcall	.-1276   	; 0x286 <reg_servo_angle>
     782:	40 e0       	ldi	r20, 0x00	; 0
     784:	50 e0       	ldi	r21, 0x00	; 0
     786:	63 e1       	ldi	r22, 0x13	; 19
     788:	73 e4       	ldi	r23, 0x43	; 67
     78a:	8f e0       	ldi	r24, 0x0F	; 15
     78c:	7c dd       	rcall	.-1288   	; 0x286 <reg_servo_angle>
     78e:	40 e0       	ldi	r20, 0x00	; 0
     790:	50 e0       	ldi	r21, 0x00	; 0
     792:	63 e6       	ldi	r22, 0x63	; 99
     794:	73 e4       	ldi	r23, 0x43	; 67
     796:	80 e1       	ldi	r24, 0x10	; 16
     798:	76 dd       	rcall	.-1300   	; 0x286 <reg_servo_angle>
     79a:	40 e0       	ldi	r20, 0x00	; 0
     79c:	50 e0       	ldi	r21, 0x00	; 0
     79e:	68 e7       	ldi	r22, 0x78	; 120
     7a0:	72 e4       	ldi	r23, 0x42	; 66
     7a2:	81 e1       	ldi	r24, 0x11	; 17
     7a4:	70 dd       	rcall	.-1312   	; 0x286 <reg_servo_angle>
     7a6:	2f ef       	ldi	r18, 0xFF	; 255
     7a8:	87 ee       	ldi	r24, 0xE7	; 231
     7aa:	93 e0       	ldi	r25, 0x03	; 3
     7ac:	21 50       	subi	r18, 0x01	; 1
     7ae:	80 40       	sbci	r24, 0x00	; 0
     7b0:	90 40       	sbci	r25, 0x00	; 0
     7b2:	e1 f7       	brne	.-8      	; 0x7ac <three_forward+0xde>
     7b4:	00 c0       	rjmp	.+0      	; 0x7b6 <three_forward+0xe8>
     7b6:	00 00       	nop
     7b8:	d6 cd       	rjmp	.-1108   	; 0x366 <action>
     7ba:	08 95       	ret

000007bc <four_forward>:
     7bc:	40 e0       	ldi	r20, 0x00	; 0
     7be:	50 e0       	ldi	r21, 0x00	; 0
     7c0:	63 e1       	ldi	r22, 0x13	; 19
     7c2:	73 e4       	ldi	r23, 0x43	; 67
     7c4:	86 e0       	ldi	r24, 0x06	; 6
     7c6:	5f dd       	rcall	.-1346   	; 0x286 <reg_servo_angle>
     7c8:	40 e0       	ldi	r20, 0x00	; 0
     7ca:	50 e0       	ldi	r21, 0x00	; 0
     7cc:	68 eb       	ldi	r22, 0xB8	; 184
     7ce:	72 e4       	ldi	r23, 0x42	; 66
     7d0:	87 e0       	ldi	r24, 0x07	; 7
     7d2:	59 dd       	rcall	.-1358   	; 0x286 <reg_servo_angle>
     7d4:	40 e0       	ldi	r20, 0x00	; 0
     7d6:	50 e0       	ldi	r21, 0x00	; 0
     7d8:	63 e6       	ldi	r22, 0x63	; 99
     7da:	73 e4       	ldi	r23, 0x43	; 67
     7dc:	88 e0       	ldi	r24, 0x08	; 8
     7de:	53 dd       	rcall	.-1370   	; 0x286 <reg_servo_angle>
     7e0:	40 e0       	ldi	r20, 0x00	; 0
     7e2:	50 e0       	ldi	r21, 0x00	; 0
     7e4:	6f e0       	ldi	r22, 0x0F	; 15
     7e6:	73 e4       	ldi	r23, 0x43	; 67
     7e8:	89 e0       	ldi	r24, 0x09	; 9
     7ea:	4d dd       	rcall	.-1382   	; 0x286 <reg_servo_angle>
     7ec:	40 e0       	ldi	r20, 0x00	; 0
     7ee:	50 e0       	ldi	r21, 0x00	; 0
     7f0:	65 e4       	ldi	r22, 0x45	; 69
     7f2:	73 e4       	ldi	r23, 0x43	; 67
     7f4:	8a e0       	ldi	r24, 0x0A	; 10
     7f6:	47 dd       	rcall	.-1394   	; 0x286 <reg_servo_angle>
     7f8:	40 e0       	ldi	r20, 0x00	; 0
     7fa:	50 e0       	ldi	r21, 0x00	; 0
     7fc:	6c eb       	ldi	r22, 0xBC	; 188
     7fe:	72 e4       	ldi	r23, 0x42	; 66
     800:	8b e0       	ldi	r24, 0x0B	; 11
     802:	41 dd       	rcall	.-1406   	; 0x286 <reg_servo_angle>
     804:	40 e0       	ldi	r20, 0x00	; 0
     806:	50 e0       	ldi	r21, 0x00	; 0
     808:	6e e1       	ldi	r22, 0x1E	; 30
     80a:	73 e4       	ldi	r23, 0x43	; 67
     80c:	83 e0       	ldi	r24, 0x03	; 3
     80e:	3b dd       	rcall	.-1418   	; 0x286 <reg_servo_angle>
     810:	40 e0       	ldi	r20, 0x00	; 0
     812:	50 e0       	ldi	r21, 0x00	; 0
     814:	6a eb       	ldi	r22, 0xBA	; 186
     816:	72 e4       	ldi	r23, 0x42	; 66
     818:	84 e0       	ldi	r24, 0x04	; 4
     81a:	35 dd       	rcall	.-1430   	; 0x286 <reg_servo_angle>
     81c:	40 e0       	ldi	r20, 0x00	; 0
     81e:	50 e0       	ldi	r21, 0x00	; 0
     820:	62 e6       	ldi	r22, 0x62	; 98
     822:	73 e4       	ldi	r23, 0x43	; 67
     824:	85 e0       	ldi	r24, 0x05	; 5
     826:	2f dd       	rcall	.-1442   	; 0x286 <reg_servo_angle>
     828:	40 e0       	ldi	r20, 0x00	; 0
     82a:	50 e0       	ldi	r21, 0x00	; 0
     82c:	6e e1       	ldi	r22, 0x1E	; 30
     82e:	73 e4       	ldi	r23, 0x43	; 67
     830:	8c e0       	ldi	r24, 0x0C	; 12
     832:	29 dd       	rcall	.-1454   	; 0x286 <reg_servo_angle>
     834:	40 e0       	ldi	r20, 0x00	; 0
     836:	50 e0       	ldi	r21, 0x00	; 0
     838:	6f e4       	ldi	r22, 0x4F	; 79
     83a:	73 e4       	ldi	r23, 0x43	; 67
     83c:	8d e0       	ldi	r24, 0x0D	; 13
     83e:	23 dd       	rcall	.-1466   	; 0x286 <reg_servo_angle>
     840:	40 e0       	ldi	r20, 0x00	; 0
     842:	50 e0       	ldi	r21, 0x00	; 0
     844:	64 e9       	ldi	r22, 0x94	; 148
     846:	72 e4       	ldi	r23, 0x42	; 66
     848:	8e e0       	ldi	r24, 0x0E	; 14
     84a:	1d dd       	rcall	.-1478   	; 0x286 <reg_servo_angle>
     84c:	40 e0       	ldi	r20, 0x00	; 0
     84e:	50 e0       	ldi	r21, 0x00	; 0
     850:	6f e0       	ldi	r22, 0x0F	; 15
     852:	73 e4       	ldi	r23, 0x43	; 67
     854:	80 e0       	ldi	r24, 0x00	; 0
     856:	17 dd       	rcall	.-1490   	; 0x286 <reg_servo_angle>
     858:	40 e0       	ldi	r20, 0x00	; 0
     85a:	50 e0       	ldi	r21, 0x00	; 0
     85c:	6e ec       	ldi	r22, 0xCE	; 206
     85e:	72 e4       	ldi	r23, 0x42	; 66
     860:	81 e0       	ldi	r24, 0x01	; 1
     862:	11 dd       	rcall	.-1502   	; 0x286 <reg_servo_angle>
     864:	40 e0       	ldi	r20, 0x00	; 0
     866:	50 e0       	ldi	r21, 0x00	; 0
     868:	6e e4       	ldi	r22, 0x4E	; 78
     86a:	73 e4       	ldi	r23, 0x43	; 67
     86c:	82 e0       	ldi	r24, 0x02	; 2
     86e:	0b dd       	rcall	.-1514   	; 0x286 <reg_servo_angle>
     870:	40 e0       	ldi	r20, 0x00	; 0
     872:	50 e0       	ldi	r21, 0x00	; 0
     874:	63 e1       	ldi	r22, 0x13	; 19
     876:	73 e4       	ldi	r23, 0x43	; 67
     878:	8f e0       	ldi	r24, 0x0F	; 15
     87a:	05 dd       	rcall	.-1526   	; 0x286 <reg_servo_angle>
     87c:	40 e0       	ldi	r20, 0x00	; 0
     87e:	50 e0       	ldi	r21, 0x00	; 0
     880:	60 e5       	ldi	r22, 0x50	; 80
     882:	73 e4       	ldi	r23, 0x43	; 67
     884:	80 e1       	ldi	r24, 0x10	; 16
     886:	ff dc       	rcall	.-1538   	; 0x286 <reg_servo_angle>
     888:	40 e0       	ldi	r20, 0x00	; 0
     88a:	50 e0       	ldi	r21, 0x00	; 0
     88c:	62 e9       	ldi	r22, 0x92	; 146
     88e:	72 e4       	ldi	r23, 0x42	; 66
     890:	81 e1       	ldi	r24, 0x11	; 17
     892:	f9 dc       	rcall	.-1550   	; 0x286 <reg_servo_angle>
     894:	2f ef       	ldi	r18, 0xFF	; 255
     896:	87 ee       	ldi	r24, 0xE7	; 231
     898:	93 e0       	ldi	r25, 0x03	; 3
     89a:	21 50       	subi	r18, 0x01	; 1
     89c:	80 40       	sbci	r24, 0x00	; 0
     89e:	90 40       	sbci	r25, 0x00	; 0
     8a0:	e1 f7       	brne	.-8      	; 0x89a <four_forward+0xde>
     8a2:	00 c0       	rjmp	.+0      	; 0x8a4 <four_forward+0xe8>
     8a4:	00 00       	nop
     8a6:	5f cd       	rjmp	.-1346   	; 0x366 <action>
     8a8:	08 95       	ret

000008aa <five_forward>:
     8aa:	40 e0       	ldi	r20, 0x00	; 0
     8ac:	50 e0       	ldi	r21, 0x00	; 0
     8ae:	63 e1       	ldi	r22, 0x13	; 19
     8b0:	73 e4       	ldi	r23, 0x43	; 67
     8b2:	86 e0       	ldi	r24, 0x06	; 6
     8b4:	e8 dc       	rcall	.-1584   	; 0x286 <reg_servo_angle>
     8b6:	40 e0       	ldi	r20, 0x00	; 0
     8b8:	50 e0       	ldi	r21, 0x00	; 0
     8ba:	62 e9       	ldi	r22, 0x92	; 146
     8bc:	72 e4       	ldi	r23, 0x42	; 66
     8be:	87 e0       	ldi	r24, 0x07	; 7
     8c0:	e2 dc       	rcall	.-1596   	; 0x286 <reg_servo_angle>
     8c2:	40 e0       	ldi	r20, 0x00	; 0
     8c4:	50 e0       	ldi	r21, 0x00	; 0
     8c6:	6e e6       	ldi	r22, 0x6E	; 110
     8c8:	73 e4       	ldi	r23, 0x43	; 67
     8ca:	88 e0       	ldi	r24, 0x08	; 8
     8cc:	dc dc       	rcall	.-1608   	; 0x286 <reg_servo_angle>
     8ce:	40 e0       	ldi	r20, 0x00	; 0
     8d0:	50 e0       	ldi	r21, 0x00	; 0
     8d2:	6f e0       	ldi	r22, 0x0F	; 15
     8d4:	73 e4       	ldi	r23, 0x43	; 67
     8d6:	89 e0       	ldi	r24, 0x09	; 9
     8d8:	d6 dc       	rcall	.-1620   	; 0x286 <reg_servo_angle>
     8da:	40 e0       	ldi	r20, 0x00	; 0
     8dc:	50 e0       	ldi	r21, 0x00	; 0
     8de:	65 e4       	ldi	r22, 0x45	; 69
     8e0:	73 e4       	ldi	r23, 0x43	; 67
     8e2:	8a e0       	ldi	r24, 0x0A	; 10
     8e4:	d0 dc       	rcall	.-1632   	; 0x286 <reg_servo_angle>
     8e6:	40 e0       	ldi	r20, 0x00	; 0
     8e8:	50 e0       	ldi	r21, 0x00	; 0
     8ea:	6c eb       	ldi	r22, 0xBC	; 188
     8ec:	72 e4       	ldi	r23, 0x42	; 66
     8ee:	8b e0       	ldi	r24, 0x0B	; 11
     8f0:	ca dc       	rcall	.-1644   	; 0x286 <reg_servo_angle>
     8f2:	40 e0       	ldi	r20, 0x00	; 0
     8f4:	50 e0       	ldi	r21, 0x00	; 0
     8f6:	6e e1       	ldi	r22, 0x1E	; 30
     8f8:	73 e4       	ldi	r23, 0x43	; 67
     8fa:	83 e0       	ldi	r24, 0x03	; 3
     8fc:	c4 dc       	rcall	.-1656   	; 0x286 <reg_servo_angle>
     8fe:	40 e0       	ldi	r20, 0x00	; 0
     900:	50 e0       	ldi	r21, 0x00	; 0
     902:	6a eb       	ldi	r22, 0xBA	; 186
     904:	72 e4       	ldi	r23, 0x42	; 66
     906:	84 e0       	ldi	r24, 0x04	; 4
     908:	be dc       	rcall	.-1668   	; 0x286 <reg_servo_angle>
     90a:	40 e0       	ldi	r20, 0x00	; 0
     90c:	50 e0       	ldi	r21, 0x00	; 0
     90e:	62 e6       	ldi	r22, 0x62	; 98
     910:	73 e4       	ldi	r23, 0x43	; 67
     912:	85 e0       	ldi	r24, 0x05	; 5
     914:	b8 dc       	rcall	.-1680   	; 0x286 <reg_servo_angle>
     916:	40 e0       	ldi	r20, 0x00	; 0
     918:	50 e0       	ldi	r21, 0x00	; 0
     91a:	6e e1       	ldi	r22, 0x1E	; 30
     91c:	73 e4       	ldi	r23, 0x43	; 67
     91e:	8c e0       	ldi	r24, 0x0C	; 12
     920:	b2 dc       	rcall	.-1692   	; 0x286 <reg_servo_angle>
     922:	40 e0       	ldi	r20, 0x00	; 0
     924:	50 e0       	ldi	r21, 0x00	; 0
     926:	61 e6       	ldi	r22, 0x61	; 97
     928:	73 e4       	ldi	r23, 0x43	; 67
     92a:	8d e0       	ldi	r24, 0x0D	; 13
     92c:	ac dc       	rcall	.-1704   	; 0x286 <reg_servo_angle>
     92e:	40 e0       	ldi	r20, 0x00	; 0
     930:	50 e0       	ldi	r21, 0x00	; 0
     932:	60 e8       	ldi	r22, 0x80	; 128
     934:	72 e4       	ldi	r23, 0x42	; 66
     936:	8e e0       	ldi	r24, 0x0E	; 14
     938:	a6 dc       	rcall	.-1716   	; 0x286 <reg_servo_angle>
     93a:	40 e0       	ldi	r20, 0x00	; 0
     93c:	50 e0       	ldi	r21, 0x00	; 0
     93e:	6f e0       	ldi	r22, 0x0F	; 15
     940:	73 e4       	ldi	r23, 0x43	; 67
     942:	80 e0       	ldi	r24, 0x00	; 0
     944:	a0 dc       	rcall	.-1728   	; 0x286 <reg_servo_angle>
     946:	40 e0       	ldi	r20, 0x00	; 0
     948:	50 e0       	ldi	r21, 0x00	; 0
     94a:	60 eb       	ldi	r22, 0xB0	; 176
     94c:	72 e4       	ldi	r23, 0x42	; 66
     94e:	81 e0       	ldi	r24, 0x01	; 1
     950:	9a dc       	rcall	.-1740   	; 0x286 <reg_servo_angle>
     952:	40 e0       	ldi	r20, 0x00	; 0
     954:	50 e0       	ldi	r21, 0x00	; 0
     956:	67 e5       	ldi	r22, 0x57	; 87
     958:	73 e4       	ldi	r23, 0x43	; 67
     95a:	82 e0       	ldi	r24, 0x02	; 2
     95c:	94 dc       	rcall	.-1752   	; 0x286 <reg_servo_angle>
     95e:	40 e0       	ldi	r20, 0x00	; 0
     960:	50 e0       	ldi	r21, 0x00	; 0
     962:	63 e1       	ldi	r22, 0x13	; 19
     964:	73 e4       	ldi	r23, 0x43	; 67
     966:	8f e0       	ldi	r24, 0x0F	; 15
     968:	8e dc       	rcall	.-1764   	; 0x286 <reg_servo_angle>
     96a:	40 e0       	ldi	r20, 0x00	; 0
     96c:	50 e0       	ldi	r21, 0x00	; 0
     96e:	60 e5       	ldi	r22, 0x50	; 80
     970:	73 e4       	ldi	r23, 0x43	; 67
     972:	80 e1       	ldi	r24, 0x10	; 16
     974:	88 dc       	rcall	.-1776   	; 0x286 <reg_servo_angle>
     976:	40 e0       	ldi	r20, 0x00	; 0
     978:	50 e0       	ldi	r21, 0x00	; 0
     97a:	62 e9       	ldi	r22, 0x92	; 146
     97c:	72 e4       	ldi	r23, 0x42	; 66
     97e:	81 e1       	ldi	r24, 0x11	; 17
     980:	82 dc       	rcall	.-1788   	; 0x286 <reg_servo_angle>
     982:	2f ef       	ldi	r18, 0xFF	; 255
     984:	87 ee       	ldi	r24, 0xE7	; 231
     986:	93 e0       	ldi	r25, 0x03	; 3
     988:	21 50       	subi	r18, 0x01	; 1
     98a:	80 40       	sbci	r24, 0x00	; 0
     98c:	90 40       	sbci	r25, 0x00	; 0
     98e:	e1 f7       	brne	.-8      	; 0x988 <five_forward+0xde>
     990:	00 c0       	rjmp	.+0      	; 0x992 <five_forward+0xe8>
     992:	00 00       	nop
     994:	e8 cc       	rjmp	.-1584   	; 0x366 <action>
     996:	08 95       	ret

00000998 <six_forward>:
     998:	40 e0       	ldi	r20, 0x00	; 0
     99a:	50 e0       	ldi	r21, 0x00	; 0
     99c:	68 e1       	ldi	r22, 0x18	; 24
     99e:	73 e4       	ldi	r23, 0x43	; 67
     9a0:	86 e0       	ldi	r24, 0x06	; 6
     9a2:	71 dc       	rcall	.-1822   	; 0x286 <reg_servo_angle>
     9a4:	40 e0       	ldi	r20, 0x00	; 0
     9a6:	50 e0       	ldi	r21, 0x00	; 0
     9a8:	60 ea       	ldi	r22, 0xA0	; 160
     9aa:	72 e4       	ldi	r23, 0x42	; 66
     9ac:	87 e0       	ldi	r24, 0x07	; 7
     9ae:	6b dc       	rcall	.-1834   	; 0x286 <reg_servo_angle>
     9b0:	40 e0       	ldi	r20, 0x00	; 0
     9b2:	50 e0       	ldi	r21, 0x00	; 0
     9b4:	63 e6       	ldi	r22, 0x63	; 99
     9b6:	73 e4       	ldi	r23, 0x43	; 67
     9b8:	88 e0       	ldi	r24, 0x08	; 8
     9ba:	65 dc       	rcall	.-1846   	; 0x286 <reg_servo_angle>
     9bc:	40 e0       	ldi	r20, 0x00	; 0
     9be:	50 e0       	ldi	r21, 0x00	; 0
     9c0:	64 e1       	ldi	r22, 0x14	; 20
     9c2:	73 e4       	ldi	r23, 0x43	; 67
     9c4:	89 e0       	ldi	r24, 0x09	; 9
     9c6:	5f dc       	rcall	.-1858   	; 0x286 <reg_servo_angle>
     9c8:	40 e0       	ldi	r20, 0x00	; 0
     9ca:	50 e0       	ldi	r21, 0x00	; 0
     9cc:	6b e4       	ldi	r22, 0x4B	; 75
     9ce:	73 e4       	ldi	r23, 0x43	; 67
     9d0:	8a e0       	ldi	r24, 0x0A	; 10
     9d2:	59 dc       	rcall	.-1870   	; 0x286 <reg_servo_angle>
     9d4:	40 e0       	ldi	r20, 0x00	; 0
     9d6:	50 e0       	ldi	r21, 0x00	; 0
     9d8:	64 ea       	ldi	r22, 0xA4	; 164
     9da:	72 e4       	ldi	r23, 0x42	; 66
     9dc:	8b e0       	ldi	r24, 0x0B	; 11
     9de:	53 dc       	rcall	.-1882   	; 0x286 <reg_servo_angle>
     9e0:	40 e0       	ldi	r20, 0x00	; 0
     9e2:	50 e0       	ldi	r21, 0x00	; 0
     9e4:	66 e1       	ldi	r22, 0x16	; 22
     9e6:	73 e4       	ldi	r23, 0x43	; 67
     9e8:	83 e0       	ldi	r24, 0x03	; 3
     9ea:	4d dc       	rcall	.-1894   	; 0x286 <reg_servo_angle>
     9ec:	40 e0       	ldi	r20, 0x00	; 0
     9ee:	50 e0       	ldi	r21, 0x00	; 0
     9f0:	68 eb       	ldi	r22, 0xB8	; 184
     9f2:	72 e4       	ldi	r23, 0x42	; 66
     9f4:	84 e0       	ldi	r24, 0x04	; 4
     9f6:	47 dc       	rcall	.-1906   	; 0x286 <reg_servo_angle>
     9f8:	40 e0       	ldi	r20, 0x00	; 0
     9fa:	50 e0       	ldi	r21, 0x00	; 0
     9fc:	63 e6       	ldi	r22, 0x63	; 99
     9fe:	73 e4       	ldi	r23, 0x43	; 67
     a00:	85 e0       	ldi	r24, 0x05	; 5
     a02:	41 dc       	rcall	.-1918   	; 0x286 <reg_servo_angle>
     a04:	40 e0       	ldi	r20, 0x00	; 0
     a06:	50 e0       	ldi	r21, 0x00	; 0
     a08:	66 e1       	ldi	r22, 0x16	; 22
     a0a:	73 e4       	ldi	r23, 0x43	; 67
     a0c:	8c e0       	ldi	r24, 0x0C	; 12
     a0e:	3b dc       	rcall	.-1930   	; 0x286 <reg_servo_angle>
     a10:	40 e0       	ldi	r20, 0x00	; 0
     a12:	50 e0       	ldi	r21, 0x00	; 0
     a14:	62 e6       	ldi	r22, 0x62	; 98
     a16:	73 e4       	ldi	r23, 0x43	; 67
     a18:	8d e0       	ldi	r24, 0x0D	; 13
     a1a:	35 dc       	rcall	.-1942   	; 0x286 <reg_servo_angle>
     a1c:	40 e0       	ldi	r20, 0x00	; 0
     a1e:	50 e0       	ldi	r21, 0x00	; 0
     a20:	6c e7       	ldi	r22, 0x7C	; 124
     a22:	72 e4       	ldi	r23, 0x42	; 66
     a24:	8e e0       	ldi	r24, 0x0E	; 14
     a26:	2f dc       	rcall	.-1954   	; 0x286 <reg_servo_angle>
     a28:	40 e0       	ldi	r20, 0x00	; 0
     a2a:	50 e0       	ldi	r21, 0x00	; 0
     a2c:	64 e1       	ldi	r22, 0x14	; 20
     a2e:	73 e4       	ldi	r23, 0x43	; 67
     a30:	80 e0       	ldi	r24, 0x00	; 0
     a32:	29 dc       	rcall	.-1966   	; 0x286 <reg_servo_angle>
     a34:	40 e0       	ldi	r20, 0x00	; 0
     a36:	50 e0       	ldi	r21, 0x00	; 0
     a38:	60 ea       	ldi	r22, 0xA0	; 160
     a3a:	72 e4       	ldi	r23, 0x42	; 66
     a3c:	81 e0       	ldi	r24, 0x01	; 1
     a3e:	23 dc       	rcall	.-1978   	; 0x286 <reg_servo_angle>
     a40:	40 e0       	ldi	r20, 0x00	; 0
     a42:	50 e0       	ldi	r21, 0x00	; 0
     a44:	63 e6       	ldi	r22, 0x63	; 99
     a46:	73 e4       	ldi	r23, 0x43	; 67
     a48:	82 e0       	ldi	r24, 0x02	; 2
     a4a:	1d dc       	rcall	.-1990   	; 0x286 <reg_servo_angle>
     a4c:	40 e0       	ldi	r20, 0x00	; 0
     a4e:	50 e0       	ldi	r21, 0x00	; 0
     a50:	68 e1       	ldi	r22, 0x18	; 24
     a52:	73 e4       	ldi	r23, 0x43	; 67
     a54:	8f e0       	ldi	r24, 0x0F	; 15
     a56:	17 dc       	rcall	.-2002   	; 0x286 <reg_servo_angle>
     a58:	40 e0       	ldi	r20, 0x00	; 0
     a5a:	50 e0       	ldi	r21, 0x00	; 0
     a5c:	6b e4       	ldi	r22, 0x4B	; 75
     a5e:	73 e4       	ldi	r23, 0x43	; 67
     a60:	80 e1       	ldi	r24, 0x10	; 16
     a62:	11 dc       	rcall	.-2014   	; 0x286 <reg_servo_angle>
     a64:	40 e0       	ldi	r20, 0x00	; 0
     a66:	50 e0       	ldi	r21, 0x00	; 0
     a68:	64 ea       	ldi	r22, 0xA4	; 164
     a6a:	72 e4       	ldi	r23, 0x42	; 66
     a6c:	81 e1       	ldi	r24, 0x11	; 17
     a6e:	0b dc       	rcall	.-2026   	; 0x286 <reg_servo_angle>
     a70:	2f ef       	ldi	r18, 0xFF	; 255
     a72:	87 ee       	ldi	r24, 0xE7	; 231
     a74:	93 e0       	ldi	r25, 0x03	; 3
     a76:	21 50       	subi	r18, 0x01	; 1
     a78:	80 40       	sbci	r24, 0x00	; 0
     a7a:	90 40       	sbci	r25, 0x00	; 0
     a7c:	e1 f7       	brne	.-8      	; 0xa76 <six_forward+0xde>
     a7e:	00 c0       	rjmp	.+0      	; 0xa80 <six_forward+0xe8>
     a80:	00 00       	nop
     a82:	71 cc       	rjmp	.-1822   	; 0x366 <action>
     a84:	08 95       	ret

00000a86 <seven_forward>:
     a86:	40 e0       	ldi	r20, 0x00	; 0
     a88:	50 e0       	ldi	r21, 0x00	; 0
     a8a:	6d e1       	ldi	r22, 0x1D	; 29
     a8c:	73 e4       	ldi	r23, 0x43	; 67
     a8e:	86 e0       	ldi	r24, 0x06	; 6
     a90:	fa db       	rcall	.-2060   	; 0x286 <reg_servo_angle>
     a92:	40 e0       	ldi	r20, 0x00	; 0
     a94:	50 e0       	ldi	r21, 0x00	; 0
     a96:	60 eb       	ldi	r22, 0xB0	; 176
     a98:	72 e4       	ldi	r23, 0x42	; 66
     a9a:	87 e0       	ldi	r24, 0x07	; 7
     a9c:	f4 db       	rcall	.-2072   	; 0x286 <reg_servo_angle>
     a9e:	40 e0       	ldi	r20, 0x00	; 0
     aa0:	50 e0       	ldi	r21, 0x00	; 0
     aa2:	67 e5       	ldi	r22, 0x57	; 87
     aa4:	73 e4       	ldi	r23, 0x43	; 67
     aa6:	88 e0       	ldi	r24, 0x08	; 8
     aa8:	ee db       	rcall	.-2084   	; 0x286 <reg_servo_angle>
     aaa:	40 e0       	ldi	r20, 0x00	; 0
     aac:	50 e0       	ldi	r21, 0x00	; 0
     aae:	69 e1       	ldi	r22, 0x19	; 25
     ab0:	73 e4       	ldi	r23, 0x43	; 67
     ab2:	89 e0       	ldi	r24, 0x09	; 9
     ab4:	e8 db       	rcall	.-2096   	; 0x286 <reg_servo_angle>
     ab6:	40 e0       	ldi	r20, 0x00	; 0
     ab8:	50 e0       	ldi	r21, 0x00	; 0
     aba:	60 e5       	ldi	r22, 0x50	; 80
     abc:	73 e4       	ldi	r23, 0x43	; 67
     abe:	8a e0       	ldi	r24, 0x0A	; 10
     ac0:	e2 db       	rcall	.-2108   	; 0x286 <reg_servo_angle>
     ac2:	40 e0       	ldi	r20, 0x00	; 0
     ac4:	50 e0       	ldi	r21, 0x00	; 0
     ac6:	62 e9       	ldi	r22, 0x92	; 146
     ac8:	72 e4       	ldi	r23, 0x42	; 66
     aca:	8b e0       	ldi	r24, 0x0B	; 11
     acc:	dc db       	rcall	.-2120   	; 0x286 <reg_servo_angle>
     ace:	40 e0       	ldi	r20, 0x00	; 0
     ad0:	50 e0       	ldi	r21, 0x00	; 0
     ad2:	6e e0       	ldi	r22, 0x0E	; 14
     ad4:	73 e4       	ldi	r23, 0x43	; 67
     ad6:	83 e0       	ldi	r24, 0x03	; 3
     ad8:	d6 db       	rcall	.-2132   	; 0x286 <reg_servo_angle>
     ada:	40 e0       	ldi	r20, 0x00	; 0
     adc:	50 e0       	ldi	r21, 0x00	; 0
     ade:	6a eb       	ldi	r22, 0xBA	; 186
     ae0:	72 e4       	ldi	r23, 0x42	; 66
     ae2:	84 e0       	ldi	r24, 0x04	; 4
     ae4:	d0 db       	rcall	.-2144   	; 0x286 <reg_servo_angle>
     ae6:	40 e0       	ldi	r20, 0x00	; 0
     ae8:	50 e0       	ldi	r21, 0x00	; 0
     aea:	62 e6       	ldi	r22, 0x62	; 98
     aec:	73 e4       	ldi	r23, 0x43	; 67
     aee:	85 e0       	ldi	r24, 0x05	; 5
     af0:	ca db       	rcall	.-2156   	; 0x286 <reg_servo_angle>
     af2:	40 e0       	ldi	r20, 0x00	; 0
     af4:	50 e0       	ldi	r21, 0x00	; 0
     af6:	6e e0       	ldi	r22, 0x0E	; 14
     af8:	73 e4       	ldi	r23, 0x43	; 67
     afa:	8c e0       	ldi	r24, 0x0C	; 12
     afc:	c4 db       	rcall	.-2168   	; 0x286 <reg_servo_angle>
     afe:	40 e0       	ldi	r20, 0x00	; 0
     b00:	50 e0       	ldi	r21, 0x00	; 0
     b02:	61 e6       	ldi	r22, 0x61	; 97
     b04:	73 e4       	ldi	r23, 0x43	; 67
     b06:	8d e0       	ldi	r24, 0x0D	; 13
     b08:	be db       	rcall	.-2180   	; 0x286 <reg_servo_angle>
     b0a:	40 e0       	ldi	r20, 0x00	; 0
     b0c:	50 e0       	ldi	r21, 0x00	; 0
     b0e:	60 e8       	ldi	r22, 0x80	; 128
     b10:	72 e4       	ldi	r23, 0x42	; 66
     b12:	8e e0       	ldi	r24, 0x0E	; 14
     b14:	b8 db       	rcall	.-2192   	; 0x286 <reg_servo_angle>
     b16:	40 e0       	ldi	r20, 0x00	; 0
     b18:	50 e0       	ldi	r21, 0x00	; 0
     b1a:	69 e1       	ldi	r22, 0x19	; 25
     b1c:	73 e4       	ldi	r23, 0x43	; 67
     b1e:	80 e0       	ldi	r24, 0x00	; 0
     b20:	b2 db       	rcall	.-2204   	; 0x286 <reg_servo_angle>
     b22:	40 e0       	ldi	r20, 0x00	; 0
     b24:	50 e0       	ldi	r21, 0x00	; 0
     b26:	62 e9       	ldi	r22, 0x92	; 146
     b28:	72 e4       	ldi	r23, 0x42	; 66
     b2a:	81 e0       	ldi	r24, 0x01	; 1
     b2c:	ac db       	rcall	.-2216   	; 0x286 <reg_servo_angle>
     b2e:	40 e0       	ldi	r20, 0x00	; 0
     b30:	50 e0       	ldi	r21, 0x00	; 0
     b32:	6e e6       	ldi	r22, 0x6E	; 110
     b34:	73 e4       	ldi	r23, 0x43	; 67
     b36:	82 e0       	ldi	r24, 0x02	; 2
     b38:	a6 db       	rcall	.-2228   	; 0x286 <reg_servo_angle>
     b3a:	40 e0       	ldi	r20, 0x00	; 0
     b3c:	50 e0       	ldi	r21, 0x00	; 0
     b3e:	6d e1       	ldi	r22, 0x1D	; 29
     b40:	73 e4       	ldi	r23, 0x43	; 67
     b42:	8f e0       	ldi	r24, 0x0F	; 15
     b44:	a0 db       	rcall	.-2240   	; 0x286 <reg_servo_angle>
     b46:	40 e0       	ldi	r20, 0x00	; 0
     b48:	50 e0       	ldi	r21, 0x00	; 0
     b4a:	65 e4       	ldi	r22, 0x45	; 69
     b4c:	73 e4       	ldi	r23, 0x43	; 67
     b4e:	80 e1       	ldi	r24, 0x10	; 16
     b50:	9a db       	rcall	.-2252   	; 0x286 <reg_servo_angle>
     b52:	40 e0       	ldi	r20, 0x00	; 0
     b54:	50 e0       	ldi	r21, 0x00	; 0
     b56:	6c eb       	ldi	r22, 0xBC	; 188
     b58:	72 e4       	ldi	r23, 0x42	; 66
     b5a:	81 e1       	ldi	r24, 0x11	; 17
     b5c:	94 db       	rcall	.-2264   	; 0x286 <reg_servo_angle>
     b5e:	2f ef       	ldi	r18, 0xFF	; 255
     b60:	87 ee       	ldi	r24, 0xE7	; 231
     b62:	93 e0       	ldi	r25, 0x03	; 3
     b64:	21 50       	subi	r18, 0x01	; 1
     b66:	80 40       	sbci	r24, 0x00	; 0
     b68:	90 40       	sbci	r25, 0x00	; 0
     b6a:	e1 f7       	brne	.-8      	; 0xb64 <seven_forward+0xde>
     b6c:	00 c0       	rjmp	.+0      	; 0xb6e <seven_forward+0xe8>
     b6e:	00 00       	nop
     b70:	fa cb       	rjmp	.-2060   	; 0x366 <action>
     b72:	08 95       	ret

00000b74 <eight_forward>:
     b74:	40 e0       	ldi	r20, 0x00	; 0
     b76:	50 e0       	ldi	r21, 0x00	; 0
     b78:	6d e1       	ldi	r22, 0x1D	; 29
     b7a:	73 e4       	ldi	r23, 0x43	; 67
     b7c:	86 e0       	ldi	r24, 0x06	; 6
     b7e:	83 db       	rcall	.-2298   	; 0x286 <reg_servo_angle>
     b80:	40 e0       	ldi	r20, 0x00	; 0
     b82:	50 e0       	ldi	r21, 0x00	; 0
     b84:	6e ec       	ldi	r22, 0xCE	; 206
     b86:	72 e4       	ldi	r23, 0x42	; 66
     b88:	87 e0       	ldi	r24, 0x07	; 7
     b8a:	7d db       	rcall	.-2310   	; 0x286 <reg_servo_angle>
     b8c:	40 e0       	ldi	r20, 0x00	; 0
     b8e:	50 e0       	ldi	r21, 0x00	; 0
     b90:	6e e4       	ldi	r22, 0x4E	; 78
     b92:	73 e4       	ldi	r23, 0x43	; 67
     b94:	88 e0       	ldi	r24, 0x08	; 8
     b96:	77 db       	rcall	.-2322   	; 0x286 <reg_servo_angle>
     b98:	40 e0       	ldi	r20, 0x00	; 0
     b9a:	50 e0       	ldi	r21, 0x00	; 0
     b9c:	69 e1       	ldi	r22, 0x19	; 25
     b9e:	73 e4       	ldi	r23, 0x43	; 67
     ba0:	89 e0       	ldi	r24, 0x09	; 9
     ba2:	71 db       	rcall	.-2334   	; 0x286 <reg_servo_angle>
     ba4:	40 e0       	ldi	r20, 0x00	; 0
     ba6:	50 e0       	ldi	r21, 0x00	; 0
     ba8:	60 e5       	ldi	r22, 0x50	; 80
     baa:	73 e4       	ldi	r23, 0x43	; 67
     bac:	8a e0       	ldi	r24, 0x0A	; 10
     bae:	6b db       	rcall	.-2346   	; 0x286 <reg_servo_angle>
     bb0:	40 e0       	ldi	r20, 0x00	; 0
     bb2:	50 e0       	ldi	r21, 0x00	; 0
     bb4:	62 e9       	ldi	r22, 0x92	; 146
     bb6:	72 e4       	ldi	r23, 0x42	; 66
     bb8:	8b e0       	ldi	r24, 0x0B	; 11
     bba:	65 db       	rcall	.-2358   	; 0x286 <reg_servo_angle>
     bbc:	40 e0       	ldi	r20, 0x00	; 0
     bbe:	50 e0       	ldi	r21, 0x00	; 0
     bc0:	6e e0       	ldi	r22, 0x0E	; 14
     bc2:	73 e4       	ldi	r23, 0x43	; 67
     bc4:	83 e0       	ldi	r24, 0x03	; 3
     bc6:	5f db       	rcall	.-2370   	; 0x286 <reg_servo_angle>
     bc8:	40 e0       	ldi	r20, 0x00	; 0
     bca:	50 e0       	ldi	r21, 0x00	; 0
     bcc:	6a eb       	ldi	r22, 0xBA	; 186
     bce:	72 e4       	ldi	r23, 0x42	; 66
     bd0:	84 e0       	ldi	r24, 0x04	; 4
     bd2:	59 db       	rcall	.-2382   	; 0x286 <reg_servo_angle>
     bd4:	40 e0       	ldi	r20, 0x00	; 0
     bd6:	50 e0       	ldi	r21, 0x00	; 0
     bd8:	62 e6       	ldi	r22, 0x62	; 98
     bda:	73 e4       	ldi	r23, 0x43	; 67
     bdc:	85 e0       	ldi	r24, 0x05	; 5
     bde:	53 db       	rcall	.-2394   	; 0x286 <reg_servo_angle>
     be0:	40 e0       	ldi	r20, 0x00	; 0
     be2:	50 e0       	ldi	r21, 0x00	; 0
     be4:	6e e0       	ldi	r22, 0x0E	; 14
     be6:	73 e4       	ldi	r23, 0x43	; 67
     be8:	8c e0       	ldi	r24, 0x0C	; 12
     bea:	4d db       	rcall	.-2406   	; 0x286 <reg_servo_angle>
     bec:	40 e0       	ldi	r20, 0x00	; 0
     bee:	50 e0       	ldi	r21, 0x00	; 0
     bf0:	6f e4       	ldi	r22, 0x4F	; 79
     bf2:	73 e4       	ldi	r23, 0x43	; 67
     bf4:	8d e0       	ldi	r24, 0x0D	; 13
     bf6:	47 db       	rcall	.-2418   	; 0x286 <reg_servo_angle>
     bf8:	40 e0       	ldi	r20, 0x00	; 0
     bfa:	50 e0       	ldi	r21, 0x00	; 0
     bfc:	64 e9       	ldi	r22, 0x94	; 148
     bfe:	72 e4       	ldi	r23, 0x42	; 66
     c00:	8e e0       	ldi	r24, 0x0E	; 14
     c02:	41 db       	rcall	.-2430   	; 0x286 <reg_servo_angle>
     c04:	40 e0       	ldi	r20, 0x00	; 0
     c06:	50 e0       	ldi	r21, 0x00	; 0
     c08:	69 e1       	ldi	r22, 0x19	; 25
     c0a:	73 e4       	ldi	r23, 0x43	; 67
     c0c:	80 e0       	ldi	r24, 0x00	; 0
     c0e:	3b db       	rcall	.-2442   	; 0x286 <reg_servo_angle>
     c10:	40 e0       	ldi	r20, 0x00	; 0
     c12:	50 e0       	ldi	r21, 0x00	; 0
     c14:	68 eb       	ldi	r22, 0xB8	; 184
     c16:	72 e4       	ldi	r23, 0x42	; 66
     c18:	81 e0       	ldi	r24, 0x01	; 1
     c1a:	35 db       	rcall	.-2454   	; 0x286 <reg_servo_angle>
     c1c:	40 e0       	ldi	r20, 0x00	; 0
     c1e:	50 e0       	ldi	r21, 0x00	; 0
     c20:	63 e6       	ldi	r22, 0x63	; 99
     c22:	73 e4       	ldi	r23, 0x43	; 67
     c24:	82 e0       	ldi	r24, 0x02	; 2
     c26:	2f db       	rcall	.-2466   	; 0x286 <reg_servo_angle>
     c28:	40 e0       	ldi	r20, 0x00	; 0
     c2a:	50 e0       	ldi	r21, 0x00	; 0
     c2c:	6d e1       	ldi	r22, 0x1D	; 29
     c2e:	73 e4       	ldi	r23, 0x43	; 67
     c30:	8f e0       	ldi	r24, 0x0F	; 15
     c32:	29 db       	rcall	.-2478   	; 0x286 <reg_servo_angle>
     c34:	40 e0       	ldi	r20, 0x00	; 0
     c36:	50 e0       	ldi	r21, 0x00	; 0
     c38:	65 e4       	ldi	r22, 0x45	; 69
     c3a:	73 e4       	ldi	r23, 0x43	; 67
     c3c:	80 e1       	ldi	r24, 0x10	; 16
     c3e:	23 db       	rcall	.-2490   	; 0x286 <reg_servo_angle>
     c40:	40 e0       	ldi	r20, 0x00	; 0
     c42:	50 e0       	ldi	r21, 0x00	; 0
     c44:	6c eb       	ldi	r22, 0xBC	; 188
     c46:	72 e4       	ldi	r23, 0x42	; 66
     c48:	81 e1       	ldi	r24, 0x11	; 17
     c4a:	1d db       	rcall	.-2502   	; 0x286 <reg_servo_angle>
     c4c:	2f ef       	ldi	r18, 0xFF	; 255
     c4e:	87 ee       	ldi	r24, 0xE7	; 231
     c50:	93 e0       	ldi	r25, 0x03	; 3
     c52:	21 50       	subi	r18, 0x01	; 1
     c54:	80 40       	sbci	r24, 0x00	; 0
     c56:	90 40       	sbci	r25, 0x00	; 0
     c58:	e1 f7       	brne	.-8      	; 0xc52 <eight_forward+0xde>
     c5a:	00 c0       	rjmp	.+0      	; 0xc5c <eight_forward+0xe8>
     c5c:	00 00       	nop
     c5e:	83 cb       	rjmp	.-2298   	; 0x366 <action>
     c60:	08 95       	ret

00000c62 <walk_forward>:
     c62:	88 df       	rcall	.-240    	; 0xb74 <eight_forward>
     c64:	46 dc       	rcall	.-1908   	; 0x4f2 <one_forward>
     c66:	bc dc       	rcall	.-1672   	; 0x5e0 <two_forward>
     c68:	32 dd       	rcall	.-1436   	; 0x6ce <three_forward>
     c6a:	a8 dd       	rcall	.-1200   	; 0x7bc <four_forward>
     c6c:	a7 dd       	rcall	.-1202   	; 0x7bc <four_forward>
     c6e:	1d de       	rcall	.-966    	; 0x8aa <five_forward>
     c70:	93 de       	rcall	.-730    	; 0x998 <six_forward>
     c72:	09 df       	rcall	.-494    	; 0xa86 <seven_forward>
     c74:	7f cf       	rjmp	.-258    	; 0xb74 <eight_forward>
     c76:	08 95       	ret

00000c78 <one_forward_left>:
     c78:	40 e0       	ldi	r20, 0x00	; 0
     c7a:	50 e0       	ldi	r21, 0x00	; 0
     c7c:	62 e2       	ldi	r22, 0x22	; 34
     c7e:	73 e4       	ldi	r23, 0x43	; 67
     c80:	86 e0       	ldi	r24, 0x06	; 6
     c82:	01 db       	rcall	.-2558   	; 0x286 <reg_servo_angle>
     c84:	40 e0       	ldi	r20, 0x00	; 0
     c86:	50 e0       	ldi	r21, 0x00	; 0
     c88:	64 ec       	ldi	r22, 0xC4	; 196
     c8a:	72 e4       	ldi	r23, 0x42	; 66
     c8c:	87 e0       	ldi	r24, 0x07	; 7
     c8e:	fb da       	rcall	.-2570   	; 0x286 <reg_servo_angle>
     c90:	40 e0       	ldi	r20, 0x00	; 0
     c92:	50 e0       	ldi	r21, 0x00	; 0
     c94:	67 e5       	ldi	r22, 0x57	; 87
     c96:	73 e4       	ldi	r23, 0x43	; 67
     c98:	88 e0       	ldi	r24, 0x08	; 8
     c9a:	f5 da       	rcall	.-2582   	; 0x286 <reg_servo_angle>
     c9c:	40 e0       	ldi	r20, 0x00	; 0
     c9e:	50 e0       	ldi	r21, 0x00	; 0
     ca0:	69 e1       	ldi	r22, 0x19	; 25
     ca2:	73 e4       	ldi	r23, 0x43	; 67
     ca4:	89 e0       	ldi	r24, 0x09	; 9
     ca6:	ef da       	rcall	.-2594   	; 0x286 <reg_servo_angle>
     ca8:	40 e0       	ldi	r20, 0x00	; 0
     caa:	50 e0       	ldi	r21, 0x00	; 0
     cac:	63 e6       	ldi	r22, 0x63	; 99
     cae:	73 e4       	ldi	r23, 0x43	; 67
     cb0:	8a e0       	ldi	r24, 0x0A	; 10
     cb2:	e9 da       	rcall	.-2606   	; 0x286 <reg_servo_angle>
     cb4:	40 e0       	ldi	r20, 0x00	; 0
     cb6:	50 e0       	ldi	r21, 0x00	; 0
     cb8:	68 e7       	ldi	r22, 0x78	; 120
     cba:	72 e4       	ldi	r23, 0x42	; 66
     cbc:	8b e0       	ldi	r24, 0x0B	; 11
     cbe:	e3 da       	rcall	.-2618   	; 0x286 <reg_servo_angle>
     cc0:	40 e0       	ldi	r20, 0x00	; 0
     cc2:	50 e0       	ldi	r21, 0x00	; 0
     cc4:	6e e0       	ldi	r22, 0x0E	; 14
     cc6:	73 e4       	ldi	r23, 0x43	; 67
     cc8:	83 e0       	ldi	r24, 0x03	; 3
     cca:	dd da       	rcall	.-2630   	; 0x286 <reg_servo_angle>
     ccc:	40 e0       	ldi	r20, 0x00	; 0
     cce:	50 e0       	ldi	r21, 0x00	; 0
     cd0:	66 e9       	ldi	r22, 0x96	; 150
     cd2:	72 e4       	ldi	r23, 0x42	; 66
     cd4:	84 e0       	ldi	r24, 0x04	; 4
     cd6:	d7 da       	rcall	.-2642   	; 0x286 <reg_servo_angle>
     cd8:	40 e0       	ldi	r20, 0x00	; 0
     cda:	50 e0       	ldi	r21, 0x00	; 0
     cdc:	6c e6       	ldi	r22, 0x6C	; 108
     cde:	73 e4       	ldi	r23, 0x43	; 67
     ce0:	85 e0       	ldi	r24, 0x05	; 5
     ce2:	d1 da       	rcall	.-2654   	; 0x286 <reg_servo_angle>
     ce4:	40 e0       	ldi	r20, 0x00	; 0
     ce6:	50 e0       	ldi	r21, 0x00	; 0
     ce8:	6e e0       	ldi	r22, 0x0E	; 14
     cea:	73 e4       	ldi	r23, 0x43	; 67
     cec:	8c e0       	ldi	r24, 0x0C	; 12
     cee:	cb da       	rcall	.-2666   	; 0x286 <reg_servo_angle>
     cf0:	40 e0       	ldi	r20, 0x00	; 0
     cf2:	50 e0       	ldi	r21, 0x00	; 0
     cf4:	6f e4       	ldi	r22, 0x4F	; 79
     cf6:	73 e4       	ldi	r23, 0x43	; 67
     cf8:	8d e0       	ldi	r24, 0x0D	; 13
     cfa:	c5 da       	rcall	.-2678   	; 0x286 <reg_servo_angle>
     cfc:	40 e0       	ldi	r20, 0x00	; 0
     cfe:	50 e0       	ldi	r21, 0x00	; 0
     d00:	64 e9       	ldi	r22, 0x94	; 148
     d02:	72 e4       	ldi	r23, 0x42	; 66
     d04:	8e e0       	ldi	r24, 0x0E	; 14
     d06:	bf da       	rcall	.-2690   	; 0x286 <reg_servo_angle>
     d08:	40 e0       	ldi	r20, 0x00	; 0
     d0a:	50 e0       	ldi	r21, 0x00	; 0
     d0c:	69 e1       	ldi	r22, 0x19	; 25
     d0e:	73 e4       	ldi	r23, 0x43	; 67
     d10:	80 e0       	ldi	r24, 0x00	; 0
     d12:	b9 da       	rcall	.-2702   	; 0x286 <reg_servo_angle>
     d14:	40 e0       	ldi	r20, 0x00	; 0
     d16:	50 e0       	ldi	r21, 0x00	; 0
     d18:	68 eb       	ldi	r22, 0xB8	; 184
     d1a:	72 e4       	ldi	r23, 0x42	; 66
     d1c:	81 e0       	ldi	r24, 0x01	; 1
     d1e:	b3 da       	rcall	.-2714   	; 0x286 <reg_servo_angle>
     d20:	40 e0       	ldi	r20, 0x00	; 0
     d22:	50 e0       	ldi	r21, 0x00	; 0
     d24:	63 e6       	ldi	r22, 0x63	; 99
     d26:	73 e4       	ldi	r23, 0x43	; 67
     d28:	82 e0       	ldi	r24, 0x02	; 2
     d2a:	ad da       	rcall	.-2726   	; 0x286 <reg_servo_angle>
     d2c:	40 e0       	ldi	r20, 0x00	; 0
     d2e:	50 e0       	ldi	r21, 0x00	; 0
     d30:	6d e1       	ldi	r22, 0x1D	; 29
     d32:	73 e4       	ldi	r23, 0x43	; 67
     d34:	8f e0       	ldi	r24, 0x0F	; 15
     d36:	a7 da       	rcall	.-2738   	; 0x286 <reg_servo_angle>
     d38:	40 e0       	ldi	r20, 0x00	; 0
     d3a:	50 e0       	ldi	r21, 0x00	; 0
     d3c:	64 e5       	ldi	r22, 0x54	; 84
     d3e:	73 e4       	ldi	r23, 0x43	; 67
     d40:	80 e1       	ldi	r24, 0x10	; 16
     d42:	a1 da       	rcall	.-2750   	; 0x286 <reg_servo_angle>
     d44:	40 e0       	ldi	r20, 0x00	; 0
     d46:	50 e0       	ldi	r21, 0x00	; 0
     d48:	6a ea       	ldi	r22, 0xAA	; 170
     d4a:	72 e4       	ldi	r23, 0x42	; 66
     d4c:	81 e1       	ldi	r24, 0x11	; 17
     d4e:	9b da       	rcall	.-2762   	; 0x286 <reg_servo_angle>
     d50:	2f ef       	ldi	r18, 0xFF	; 255
     d52:	87 ee       	ldi	r24, 0xE7	; 231
     d54:	93 e0       	ldi	r25, 0x03	; 3
     d56:	21 50       	subi	r18, 0x01	; 1
     d58:	80 40       	sbci	r24, 0x00	; 0
     d5a:	90 40       	sbci	r25, 0x00	; 0
     d5c:	e1 f7       	brne	.-8      	; 0xd56 <one_forward_left+0xde>
     d5e:	00 c0       	rjmp	.+0      	; 0xd60 <one_forward_left+0xe8>
     d60:	00 00       	nop
     d62:	01 cb       	rjmp	.-2558   	; 0x366 <action>
     d64:	08 95       	ret

00000d66 <two_forward_left>:
     d66:	40 e0       	ldi	r20, 0x00	; 0
     d68:	50 e0       	ldi	r21, 0x00	; 0
     d6a:	6b e1       	ldi	r22, 0x1B	; 27
     d6c:	73 e4       	ldi	r23, 0x43	; 67
     d6e:	86 e0       	ldi	r24, 0x06	; 6
     d70:	8a da       	rcall	.-2796   	; 0x286 <reg_servo_angle>
     d72:	40 e0       	ldi	r20, 0x00	; 0
     d74:	50 e0       	ldi	r21, 0x00	; 0
     d76:	6c eb       	ldi	r22, 0xBC	; 188
     d78:	72 e4       	ldi	r23, 0x42	; 66
     d7a:	87 e0       	ldi	r24, 0x07	; 7
     d7c:	84 da       	rcall	.-2808   	; 0x286 <reg_servo_angle>
     d7e:	40 e0       	ldi	r20, 0x00	; 0
     d80:	50 e0       	ldi	r21, 0x00	; 0
     d82:	6e e5       	ldi	r22, 0x5E	; 94
     d84:	73 e4       	ldi	r23, 0x43	; 67
     d86:	88 e0       	ldi	r24, 0x08	; 8
     d88:	7e da       	rcall	.-2820   	; 0x286 <reg_servo_angle>
     d8a:	40 e0       	ldi	r20, 0x00	; 0
     d8c:	50 e0       	ldi	r21, 0x00	; 0
     d8e:	66 e1       	ldi	r22, 0x16	; 22
     d90:	73 e4       	ldi	r23, 0x43	; 67
     d92:	89 e0       	ldi	r24, 0x09	; 9
     d94:	78 da       	rcall	.-2832   	; 0x286 <reg_servo_angle>
     d96:	40 e0       	ldi	r20, 0x00	; 0
     d98:	50 e0       	ldi	r21, 0x00	; 0
     d9a:	68 e5       	ldi	r22, 0x58	; 88
     d9c:	73 e4       	ldi	r23, 0x43	; 67
     d9e:	8a e0       	ldi	r24, 0x0A	; 10
     da0:	72 da       	rcall	.-2844   	; 0x286 <reg_servo_angle>
     da2:	40 e0       	ldi	r20, 0x00	; 0
     da4:	50 e0       	ldi	r21, 0x00	; 0
     da6:	6c e9       	ldi	r22, 0x9C	; 156
     da8:	72 e4       	ldi	r23, 0x42	; 66
     daa:	8b e0       	ldi	r24, 0x0B	; 11
     dac:	6c da       	rcall	.-2856   	; 0x286 <reg_servo_angle>
     dae:	40 e0       	ldi	r20, 0x00	; 0
     db0:	50 e0       	ldi	r21, 0x00	; 0
     db2:	66 e1       	ldi	r22, 0x16	; 22
     db4:	73 e4       	ldi	r23, 0x43	; 67
     db6:	83 e0       	ldi	r24, 0x03	; 3
     db8:	66 da       	rcall	.-2868   	; 0x286 <reg_servo_angle>
     dba:	40 e0       	ldi	r20, 0x00	; 0
     dbc:	50 e0       	ldi	r21, 0x00	; 0
     dbe:	64 e9       	ldi	r22, 0x94	; 148
     dc0:	72 e4       	ldi	r23, 0x42	; 66
     dc2:	84 e0       	ldi	r24, 0x04	; 4
     dc4:	60 da       	rcall	.-2880   	; 0x286 <reg_servo_angle>
     dc6:	40 e0       	ldi	r20, 0x00	; 0
     dc8:	50 e0       	ldi	r21, 0x00	; 0
     dca:	6d e6       	ldi	r22, 0x6D	; 109
     dcc:	73 e4       	ldi	r23, 0x43	; 67
     dce:	85 e0       	ldi	r24, 0x05	; 5
     dd0:	5a da       	rcall	.-2892   	; 0x286 <reg_servo_angle>
     dd2:	40 e0       	ldi	r20, 0x00	; 0
     dd4:	50 e0       	ldi	r21, 0x00	; 0
     dd6:	66 e1       	ldi	r22, 0x16	; 22
     dd8:	73 e4       	ldi	r23, 0x43	; 67
     dda:	8c e0       	ldi	r24, 0x0C	; 12
     ddc:	54 da       	rcall	.-2904   	; 0x286 <reg_servo_angle>
     dde:	40 e0       	ldi	r20, 0x00	; 0
     de0:	50 e0       	ldi	r21, 0x00	; 0
     de2:	60 e5       	ldi	r22, 0x50	; 80
     de4:	73 e4       	ldi	r23, 0x43	; 67
     de6:	8d e0       	ldi	r24, 0x0D	; 13
     de8:	4e da       	rcall	.-2916   	; 0x286 <reg_servo_angle>
     dea:	40 e0       	ldi	r20, 0x00	; 0
     dec:	50 e0       	ldi	r21, 0x00	; 0
     dee:	62 e9       	ldi	r22, 0x92	; 146
     df0:	72 e4       	ldi	r23, 0x42	; 66
     df2:	8e e0       	ldi	r24, 0x0E	; 14
     df4:	48 da       	rcall	.-2928   	; 0x286 <reg_servo_angle>
     df6:	40 e0       	ldi	r20, 0x00	; 0
     df8:	50 e0       	ldi	r21, 0x00	; 0
     dfa:	64 e1       	ldi	r22, 0x14	; 20
     dfc:	73 e4       	ldi	r23, 0x43	; 67
     dfe:	80 e0       	ldi	r24, 0x00	; 0
     e00:	42 da       	rcall	.-2940   	; 0x286 <reg_servo_angle>
     e02:	40 e0       	ldi	r20, 0x00	; 0
     e04:	50 e0       	ldi	r21, 0x00	; 0
     e06:	62 ec       	ldi	r22, 0xC2	; 194
     e08:	72 e4       	ldi	r23, 0x42	; 66
     e0a:	81 e0       	ldi	r24, 0x01	; 1
     e0c:	3c da       	rcall	.-2952   	; 0x286 <reg_servo_angle>
     e0e:	40 e0       	ldi	r20, 0x00	; 0
     e10:	50 e0       	ldi	r21, 0x00	; 0
     e12:	6a e5       	ldi	r22, 0x5A	; 90
     e14:	73 e4       	ldi	r23, 0x43	; 67
     e16:	82 e0       	ldi	r24, 0x02	; 2
     e18:	36 da       	rcall	.-2964   	; 0x286 <reg_servo_angle>
     e1a:	40 e0       	ldi	r20, 0x00	; 0
     e1c:	50 e0       	ldi	r21, 0x00	; 0
     e1e:	68 e1       	ldi	r22, 0x18	; 24
     e20:	73 e4       	ldi	r23, 0x43	; 67
     e22:	8f e0       	ldi	r24, 0x0F	; 15
     e24:	30 da       	rcall	.-2976   	; 0x286 <reg_servo_angle>
     e26:	40 e0       	ldi	r20, 0x00	; 0
     e28:	50 e0       	ldi	r21, 0x00	; 0
     e2a:	6c e5       	ldi	r22, 0x5C	; 92
     e2c:	73 e4       	ldi	r23, 0x43	; 67
     e2e:	80 e1       	ldi	r24, 0x10	; 16
     e30:	2a da       	rcall	.-2988   	; 0x286 <reg_servo_angle>
     e32:	40 e0       	ldi	r20, 0x00	; 0
     e34:	50 e0       	ldi	r21, 0x00	; 0
     e36:	62 e9       	ldi	r22, 0x92	; 146
     e38:	72 e4       	ldi	r23, 0x42	; 66
     e3a:	81 e1       	ldi	r24, 0x11	; 17
     e3c:	24 da       	rcall	.-3000   	; 0x286 <reg_servo_angle>
     e3e:	2f ef       	ldi	r18, 0xFF	; 255
     e40:	87 ee       	ldi	r24, 0xE7	; 231
     e42:	93 e0       	ldi	r25, 0x03	; 3
     e44:	21 50       	subi	r18, 0x01	; 1
     e46:	80 40       	sbci	r24, 0x00	; 0
     e48:	90 40       	sbci	r25, 0x00	; 0
     e4a:	e1 f7       	brne	.-8      	; 0xe44 <two_forward_left+0xde>
     e4c:	00 c0       	rjmp	.+0      	; 0xe4e <two_forward_left+0xe8>
     e4e:	00 00       	nop
     e50:	8a ca       	rjmp	.-2796   	; 0x366 <action>
     e52:	08 95       	ret

00000e54 <three_forward_left>:
     e54:	40 e0       	ldi	r20, 0x00	; 0
     e56:	50 e0       	ldi	r21, 0x00	; 0
     e58:	63 e1       	ldi	r22, 0x13	; 19
     e5a:	73 e4       	ldi	r23, 0x43	; 67
     e5c:	86 e0       	ldi	r24, 0x06	; 6
     e5e:	13 da       	rcall	.-3034   	; 0x286 <reg_servo_angle>
     e60:	40 e0       	ldi	r20, 0x00	; 0
     e62:	50 e0       	ldi	r21, 0x00	; 0
     e64:	68 eb       	ldi	r22, 0xB8	; 184
     e66:	72 e4       	ldi	r23, 0x42	; 66
     e68:	87 e0       	ldi	r24, 0x07	; 7
     e6a:	0d da       	rcall	.-3046   	; 0x286 <reg_servo_angle>
     e6c:	40 e0       	ldi	r20, 0x00	; 0
     e6e:	50 e0       	ldi	r21, 0x00	; 0
     e70:	63 e6       	ldi	r22, 0x63	; 99
     e72:	73 e4       	ldi	r23, 0x43	; 67
     e74:	88 e0       	ldi	r24, 0x08	; 8
     e76:	07 da       	rcall	.-3058   	; 0x286 <reg_servo_angle>
     e78:	40 e0       	ldi	r20, 0x00	; 0
     e7a:	50 e0       	ldi	r21, 0x00	; 0
     e7c:	64 e1       	ldi	r22, 0x14	; 20
     e7e:	73 e4       	ldi	r23, 0x43	; 67
     e80:	89 e0       	ldi	r24, 0x09	; 9
     e82:	01 da       	rcall	.-3070   	; 0x286 <reg_servo_angle>
     e84:	40 e0       	ldi	r20, 0x00	; 0
     e86:	50 e0       	ldi	r21, 0x00	; 0
     e88:	6c e4       	ldi	r22, 0x4C	; 76
     e8a:	73 e4       	ldi	r23, 0x43	; 67
     e8c:	8a e0       	ldi	r24, 0x0A	; 10
     e8e:	fb d9       	rcall	.-3082   	; 0x286 <reg_servo_angle>
     e90:	40 e0       	ldi	r20, 0x00	; 0
     e92:	50 e0       	ldi	r21, 0x00	; 0
     e94:	60 ec       	ldi	r22, 0xC0	; 192
     e96:	72 e4       	ldi	r23, 0x42	; 66
     e98:	8b e0       	ldi	r24, 0x0B	; 11
     e9a:	f5 d9       	rcall	.-3094   	; 0x286 <reg_servo_angle>
     e9c:	40 e0       	ldi	r20, 0x00	; 0
     e9e:	50 e0       	ldi	r21, 0x00	; 0
     ea0:	6e e1       	ldi	r22, 0x1E	; 30
     ea2:	73 e4       	ldi	r23, 0x43	; 67
     ea4:	83 e0       	ldi	r24, 0x03	; 3
     ea6:	ef d9       	rcall	.-3106   	; 0x286 <reg_servo_angle>
     ea8:	40 e0       	ldi	r20, 0x00	; 0
     eaa:	50 e0       	ldi	r21, 0x00	; 0
     eac:	66 e9       	ldi	r22, 0x96	; 150
     eae:	72 e4       	ldi	r23, 0x42	; 66
     eb0:	84 e0       	ldi	r24, 0x04	; 4
     eb2:	e9 d9       	rcall	.-3118   	; 0x286 <reg_servo_angle>
     eb4:	40 e0       	ldi	r20, 0x00	; 0
     eb6:	50 e0       	ldi	r21, 0x00	; 0
     eb8:	6c e6       	ldi	r22, 0x6C	; 108
     eba:	73 e4       	ldi	r23, 0x43	; 67
     ebc:	85 e0       	ldi	r24, 0x05	; 5
     ebe:	e3 d9       	rcall	.-3130   	; 0x286 <reg_servo_angle>
     ec0:	40 e0       	ldi	r20, 0x00	; 0
     ec2:	50 e0       	ldi	r21, 0x00	; 0
     ec4:	6e e1       	ldi	r22, 0x1E	; 30
     ec6:	73 e4       	ldi	r23, 0x43	; 67
     ec8:	8c e0       	ldi	r24, 0x0C	; 12
     eca:	dd d9       	rcall	.-3142   	; 0x286 <reg_servo_angle>
     ecc:	40 e0       	ldi	r20, 0x00	; 0
     ece:	50 e0       	ldi	r21, 0x00	; 0
     ed0:	6f e4       	ldi	r22, 0x4F	; 79
     ed2:	73 e4       	ldi	r23, 0x43	; 67
     ed4:	8d e0       	ldi	r24, 0x0D	; 13
     ed6:	d7 d9       	rcall	.-3154   	; 0x286 <reg_servo_angle>
     ed8:	40 e0       	ldi	r20, 0x00	; 0
     eda:	50 e0       	ldi	r21, 0x00	; 0
     edc:	64 e9       	ldi	r22, 0x94	; 148
     ede:	72 e4       	ldi	r23, 0x42	; 66
     ee0:	8e e0       	ldi	r24, 0x0E	; 14
     ee2:	d1 d9       	rcall	.-3166   	; 0x286 <reg_servo_angle>
     ee4:	40 e0       	ldi	r20, 0x00	; 0
     ee6:	50 e0       	ldi	r21, 0x00	; 0
     ee8:	6f e0       	ldi	r22, 0x0F	; 15
     eea:	73 e4       	ldi	r23, 0x43	; 67
     eec:	80 e0       	ldi	r24, 0x00	; 0
     eee:	cb d9       	rcall	.-3178   	; 0x286 <reg_servo_angle>
     ef0:	40 e0       	ldi	r20, 0x00	; 0
     ef2:	50 e0       	ldi	r21, 0x00	; 0
     ef4:	6e ec       	ldi	r22, 0xCE	; 206
     ef6:	72 e4       	ldi	r23, 0x42	; 66
     ef8:	81 e0       	ldi	r24, 0x01	; 1
     efa:	c5 d9       	rcall	.-3190   	; 0x286 <reg_servo_angle>
     efc:	40 e0       	ldi	r20, 0x00	; 0
     efe:	50 e0       	ldi	r21, 0x00	; 0
     f00:	6e e4       	ldi	r22, 0x4E	; 78
     f02:	73 e4       	ldi	r23, 0x43	; 67
     f04:	82 e0       	ldi	r24, 0x02	; 2
     f06:	bf d9       	rcall	.-3202   	; 0x286 <reg_servo_angle>
     f08:	40 e0       	ldi	r20, 0x00	; 0
     f0a:	50 e0       	ldi	r21, 0x00	; 0
     f0c:	63 e1       	ldi	r22, 0x13	; 19
     f0e:	73 e4       	ldi	r23, 0x43	; 67
     f10:	8f e0       	ldi	r24, 0x0F	; 15
     f12:	b9 d9       	rcall	.-3214   	; 0x286 <reg_servo_angle>
     f14:	40 e0       	ldi	r20, 0x00	; 0
     f16:	50 e0       	ldi	r21, 0x00	; 0
     f18:	63 e6       	ldi	r22, 0x63	; 99
     f1a:	73 e4       	ldi	r23, 0x43	; 67
     f1c:	80 e1       	ldi	r24, 0x10	; 16
     f1e:	b3 d9       	rcall	.-3226   	; 0x286 <reg_servo_angle>
     f20:	40 e0       	ldi	r20, 0x00	; 0
     f22:	50 e0       	ldi	r21, 0x00	; 0
     f24:	68 e7       	ldi	r22, 0x78	; 120
     f26:	72 e4       	ldi	r23, 0x42	; 66
     f28:	81 e1       	ldi	r24, 0x11	; 17
     f2a:	ad d9       	rcall	.-3238   	; 0x286 <reg_servo_angle>
     f2c:	2f ef       	ldi	r18, 0xFF	; 255
     f2e:	87 ee       	ldi	r24, 0xE7	; 231
     f30:	93 e0       	ldi	r25, 0x03	; 3
     f32:	21 50       	subi	r18, 0x01	; 1
     f34:	80 40       	sbci	r24, 0x00	; 0
     f36:	90 40       	sbci	r25, 0x00	; 0
     f38:	e1 f7       	brne	.-8      	; 0xf32 <three_forward_left+0xde>
     f3a:	00 c0       	rjmp	.+0      	; 0xf3c <three_forward_left+0xe8>
     f3c:	00 00       	nop
     f3e:	13 ca       	rjmp	.-3034   	; 0x366 <action>
     f40:	08 95       	ret

00000f42 <four_forward_left>:
     f42:	40 e0       	ldi	r20, 0x00	; 0
     f44:	50 e0       	ldi	r21, 0x00	; 0
     f46:	63 e1       	ldi	r22, 0x13	; 19
     f48:	73 e4       	ldi	r23, 0x43	; 67
     f4a:	86 e0       	ldi	r24, 0x06	; 6
     f4c:	9c d9       	rcall	.-3272   	; 0x286 <reg_servo_angle>
     f4e:	40 e0       	ldi	r20, 0x00	; 0
     f50:	50 e0       	ldi	r21, 0x00	; 0
     f52:	68 eb       	ldi	r22, 0xB8	; 184
     f54:	72 e4       	ldi	r23, 0x42	; 66
     f56:	87 e0       	ldi	r24, 0x07	; 7
     f58:	96 d9       	rcall	.-3284   	; 0x286 <reg_servo_angle>
     f5a:	40 e0       	ldi	r20, 0x00	; 0
     f5c:	50 e0       	ldi	r21, 0x00	; 0
     f5e:	63 e6       	ldi	r22, 0x63	; 99
     f60:	73 e4       	ldi	r23, 0x43	; 67
     f62:	88 e0       	ldi	r24, 0x08	; 8
     f64:	90 d9       	rcall	.-3296   	; 0x286 <reg_servo_angle>
     f66:	40 e0       	ldi	r20, 0x00	; 0
     f68:	50 e0       	ldi	r21, 0x00	; 0
     f6a:	64 e1       	ldi	r22, 0x14	; 20
     f6c:	73 e4       	ldi	r23, 0x43	; 67
     f6e:	89 e0       	ldi	r24, 0x09	; 9
     f70:	8a d9       	rcall	.-3308   	; 0x286 <reg_servo_angle>
     f72:	40 e0       	ldi	r20, 0x00	; 0
     f74:	50 e0       	ldi	r21, 0x00	; 0
     f76:	6e e3       	ldi	r22, 0x3E	; 62
     f78:	73 e4       	ldi	r23, 0x43	; 67
     f7a:	8a e0       	ldi	r24, 0x0A	; 10
     f7c:	84 d9       	rcall	.-3320   	; 0x286 <reg_servo_angle>
     f7e:	40 e0       	ldi	r20, 0x00	; 0
     f80:	50 e0       	ldi	r21, 0x00	; 0
     f82:	62 ed       	ldi	r22, 0xD2	; 210
     f84:	72 e4       	ldi	r23, 0x42	; 66
     f86:	8b e0       	ldi	r24, 0x0B	; 11
     f88:	7e d9       	rcall	.-3332   	; 0x286 <reg_servo_angle>
     f8a:	40 e0       	ldi	r20, 0x00	; 0
     f8c:	50 e0       	ldi	r21, 0x00	; 0
     f8e:	6e e1       	ldi	r22, 0x1E	; 30
     f90:	73 e4       	ldi	r23, 0x43	; 67
     f92:	83 e0       	ldi	r24, 0x03	; 3
     f94:	78 d9       	rcall	.-3344   	; 0x286 <reg_servo_angle>
     f96:	40 e0       	ldi	r20, 0x00	; 0
     f98:	50 e0       	ldi	r21, 0x00	; 0
     f9a:	6a eb       	ldi	r22, 0xBA	; 186
     f9c:	72 e4       	ldi	r23, 0x42	; 66
     f9e:	84 e0       	ldi	r24, 0x04	; 4
     fa0:	72 d9       	rcall	.-3356   	; 0x286 <reg_servo_angle>
     fa2:	40 e0       	ldi	r20, 0x00	; 0
     fa4:	50 e0       	ldi	r21, 0x00	; 0
     fa6:	62 e6       	ldi	r22, 0x62	; 98
     fa8:	73 e4       	ldi	r23, 0x43	; 67
     faa:	85 e0       	ldi	r24, 0x05	; 5
     fac:	6c d9       	rcall	.-3368   	; 0x286 <reg_servo_angle>
     fae:	40 e0       	ldi	r20, 0x00	; 0
     fb0:	50 e0       	ldi	r21, 0x00	; 0
     fb2:	6e e1       	ldi	r22, 0x1E	; 30
     fb4:	73 e4       	ldi	r23, 0x43	; 67
     fb6:	8c e0       	ldi	r24, 0x0C	; 12
     fb8:	66 d9       	rcall	.-3380   	; 0x286 <reg_servo_angle>
     fba:	40 e0       	ldi	r20, 0x00	; 0
     fbc:	50 e0       	ldi	r21, 0x00	; 0
     fbe:	6f e4       	ldi	r22, 0x4F	; 79
     fc0:	73 e4       	ldi	r23, 0x43	; 67
     fc2:	8d e0       	ldi	r24, 0x0D	; 13
     fc4:	60 d9       	rcall	.-3392   	; 0x286 <reg_servo_angle>
     fc6:	40 e0       	ldi	r20, 0x00	; 0
     fc8:	50 e0       	ldi	r21, 0x00	; 0
     fca:	64 e9       	ldi	r22, 0x94	; 148
     fcc:	72 e4       	ldi	r23, 0x42	; 66
     fce:	8e e0       	ldi	r24, 0x0E	; 14
     fd0:	5a d9       	rcall	.-3404   	; 0x286 <reg_servo_angle>
     fd2:	40 e0       	ldi	r20, 0x00	; 0
     fd4:	50 e0       	ldi	r21, 0x00	; 0
     fd6:	6f e0       	ldi	r22, 0x0F	; 15
     fd8:	73 e4       	ldi	r23, 0x43	; 67
     fda:	80 e0       	ldi	r24, 0x00	; 0
     fdc:	54 d9       	rcall	.-3416   	; 0x286 <reg_servo_angle>
     fde:	40 e0       	ldi	r20, 0x00	; 0
     fe0:	50 e0       	ldi	r21, 0x00	; 0
     fe2:	6e ec       	ldi	r22, 0xCE	; 206
     fe4:	72 e4       	ldi	r23, 0x42	; 66
     fe6:	81 e0       	ldi	r24, 0x01	; 1
     fe8:	4e d9       	rcall	.-3428   	; 0x286 <reg_servo_angle>
     fea:	40 e0       	ldi	r20, 0x00	; 0
     fec:	50 e0       	ldi	r21, 0x00	; 0
     fee:	6e e4       	ldi	r22, 0x4E	; 78
     ff0:	73 e4       	ldi	r23, 0x43	; 67
     ff2:	82 e0       	ldi	r24, 0x02	; 2
     ff4:	48 d9       	rcall	.-3440   	; 0x286 <reg_servo_angle>
     ff6:	40 e0       	ldi	r20, 0x00	; 0
     ff8:	50 e0       	ldi	r21, 0x00	; 0
     ffa:	63 e1       	ldi	r22, 0x13	; 19
     ffc:	73 e4       	ldi	r23, 0x43	; 67
     ffe:	8f e0       	ldi	r24, 0x0F	; 15
    1000:	42 d9       	rcall	.-3452   	; 0x286 <reg_servo_angle>
    1002:	40 e0       	ldi	r20, 0x00	; 0
    1004:	50 e0       	ldi	r21, 0x00	; 0
    1006:	60 e5       	ldi	r22, 0x50	; 80
    1008:	73 e4       	ldi	r23, 0x43	; 67
    100a:	80 e1       	ldi	r24, 0x10	; 16
    100c:	3c d9       	rcall	.-3464   	; 0x286 <reg_servo_angle>
    100e:	40 e0       	ldi	r20, 0x00	; 0
    1010:	50 e0       	ldi	r21, 0x00	; 0
    1012:	62 e9       	ldi	r22, 0x92	; 146
    1014:	72 e4       	ldi	r23, 0x42	; 66
    1016:	81 e1       	ldi	r24, 0x11	; 17
    1018:	36 d9       	rcall	.-3476   	; 0x286 <reg_servo_angle>
    101a:	2f ef       	ldi	r18, 0xFF	; 255
    101c:	87 ee       	ldi	r24, 0xE7	; 231
    101e:	93 e0       	ldi	r25, 0x03	; 3
    1020:	21 50       	subi	r18, 0x01	; 1
    1022:	80 40       	sbci	r24, 0x00	; 0
    1024:	90 40       	sbci	r25, 0x00	; 0
    1026:	e1 f7       	brne	.-8      	; 0x1020 <four_forward_left+0xde>
    1028:	00 c0       	rjmp	.+0      	; 0x102a <four_forward_left+0xe8>
    102a:	00 00       	nop
    102c:	9c c9       	rjmp	.-3272   	; 0x366 <action>
    102e:	08 95       	ret

00001030 <five_forward_left>:
    1030:	40 e0       	ldi	r20, 0x00	; 0
    1032:	50 e0       	ldi	r21, 0x00	; 0
    1034:	63 e1       	ldi	r22, 0x13	; 19
    1036:	73 e4       	ldi	r23, 0x43	; 67
    1038:	86 e0       	ldi	r24, 0x06	; 6
    103a:	25 d9       	rcall	.-3510   	; 0x286 <reg_servo_angle>
    103c:	40 e0       	ldi	r20, 0x00	; 0
    103e:	50 e0       	ldi	r21, 0x00	; 0
    1040:	62 e9       	ldi	r22, 0x92	; 146
    1042:	72 e4       	ldi	r23, 0x42	; 66
    1044:	87 e0       	ldi	r24, 0x07	; 7
    1046:	1f d9       	rcall	.-3522   	; 0x286 <reg_servo_angle>
    1048:	40 e0       	ldi	r20, 0x00	; 0
    104a:	50 e0       	ldi	r21, 0x00	; 0
    104c:	6e e6       	ldi	r22, 0x6E	; 110
    104e:	73 e4       	ldi	r23, 0x43	; 67
    1050:	88 e0       	ldi	r24, 0x08	; 8
    1052:	19 d9       	rcall	.-3534   	; 0x286 <reg_servo_angle>
    1054:	40 e0       	ldi	r20, 0x00	; 0
    1056:	50 e0       	ldi	r21, 0x00	; 0
    1058:	64 e1       	ldi	r22, 0x14	; 20
    105a:	73 e4       	ldi	r23, 0x43	; 67
    105c:	89 e0       	ldi	r24, 0x09	; 9
    105e:	13 d9       	rcall	.-3546   	; 0x286 <reg_servo_angle>
    1060:	40 e0       	ldi	r20, 0x00	; 0
    1062:	50 e0       	ldi	r21, 0x00	; 0
    1064:	6e e3       	ldi	r22, 0x3E	; 62
    1066:	73 e4       	ldi	r23, 0x43	; 67
    1068:	8a e0       	ldi	r24, 0x0A	; 10
    106a:	0d d9       	rcall	.-3558   	; 0x286 <reg_servo_angle>
    106c:	40 e0       	ldi	r20, 0x00	; 0
    106e:	50 e0       	ldi	r21, 0x00	; 0
    1070:	62 ed       	ldi	r22, 0xD2	; 210
    1072:	72 e4       	ldi	r23, 0x42	; 66
    1074:	8b e0       	ldi	r24, 0x0B	; 11
    1076:	07 d9       	rcall	.-3570   	; 0x286 <reg_servo_angle>
    1078:	40 e0       	ldi	r20, 0x00	; 0
    107a:	50 e0       	ldi	r21, 0x00	; 0
    107c:	6e e1       	ldi	r22, 0x1E	; 30
    107e:	73 e4       	ldi	r23, 0x43	; 67
    1080:	83 e0       	ldi	r24, 0x03	; 3
    1082:	01 d9       	rcall	.-3582   	; 0x286 <reg_servo_angle>
    1084:	40 e0       	ldi	r20, 0x00	; 0
    1086:	50 e0       	ldi	r21, 0x00	; 0
    1088:	6a eb       	ldi	r22, 0xBA	; 186
    108a:	72 e4       	ldi	r23, 0x42	; 66
    108c:	84 e0       	ldi	r24, 0x04	; 4
    108e:	fb d8       	rcall	.-3594   	; 0x286 <reg_servo_angle>
    1090:	40 e0       	ldi	r20, 0x00	; 0
    1092:	50 e0       	ldi	r21, 0x00	; 0
    1094:	62 e6       	ldi	r22, 0x62	; 98
    1096:	73 e4       	ldi	r23, 0x43	; 67
    1098:	85 e0       	ldi	r24, 0x05	; 5
    109a:	f5 d8       	rcall	.-3606   	; 0x286 <reg_servo_angle>
    109c:	40 e0       	ldi	r20, 0x00	; 0
    109e:	50 e0       	ldi	r21, 0x00	; 0
    10a0:	6e e1       	ldi	r22, 0x1E	; 30
    10a2:	73 e4       	ldi	r23, 0x43	; 67
    10a4:	8c e0       	ldi	r24, 0x0C	; 12
    10a6:	ef d8       	rcall	.-3618   	; 0x286 <reg_servo_angle>
    10a8:	40 e0       	ldi	r20, 0x00	; 0
    10aa:	50 e0       	ldi	r21, 0x00	; 0
    10ac:	61 e6       	ldi	r22, 0x61	; 97
    10ae:	73 e4       	ldi	r23, 0x43	; 67
    10b0:	8d e0       	ldi	r24, 0x0D	; 13
    10b2:	e9 d8       	rcall	.-3630   	; 0x286 <reg_servo_angle>
    10b4:	40 e0       	ldi	r20, 0x00	; 0
    10b6:	50 e0       	ldi	r21, 0x00	; 0
    10b8:	60 e8       	ldi	r22, 0x80	; 128
    10ba:	72 e4       	ldi	r23, 0x42	; 66
    10bc:	8e e0       	ldi	r24, 0x0E	; 14
    10be:	e3 d8       	rcall	.-3642   	; 0x286 <reg_servo_angle>
    10c0:	40 e0       	ldi	r20, 0x00	; 0
    10c2:	50 e0       	ldi	r21, 0x00	; 0
    10c4:	6f e0       	ldi	r22, 0x0F	; 15
    10c6:	73 e4       	ldi	r23, 0x43	; 67
    10c8:	80 e0       	ldi	r24, 0x00	; 0
    10ca:	dd d8       	rcall	.-3654   	; 0x286 <reg_servo_angle>
    10cc:	40 e0       	ldi	r20, 0x00	; 0
    10ce:	50 e0       	ldi	r21, 0x00	; 0
    10d0:	60 eb       	ldi	r22, 0xB0	; 176
    10d2:	72 e4       	ldi	r23, 0x42	; 66
    10d4:	81 e0       	ldi	r24, 0x01	; 1
    10d6:	d7 d8       	rcall	.-3666   	; 0x286 <reg_servo_angle>
    10d8:	40 e0       	ldi	r20, 0x00	; 0
    10da:	50 e0       	ldi	r21, 0x00	; 0
    10dc:	67 e5       	ldi	r22, 0x57	; 87
    10de:	73 e4       	ldi	r23, 0x43	; 67
    10e0:	82 e0       	ldi	r24, 0x02	; 2
    10e2:	d1 d8       	rcall	.-3678   	; 0x286 <reg_servo_angle>
    10e4:	40 e0       	ldi	r20, 0x00	; 0
    10e6:	50 e0       	ldi	r21, 0x00	; 0
    10e8:	63 e1       	ldi	r22, 0x13	; 19
    10ea:	73 e4       	ldi	r23, 0x43	; 67
    10ec:	8f e0       	ldi	r24, 0x0F	; 15
    10ee:	cb d8       	rcall	.-3690   	; 0x286 <reg_servo_angle>
    10f0:	40 e0       	ldi	r20, 0x00	; 0
    10f2:	50 e0       	ldi	r21, 0x00	; 0
    10f4:	60 e5       	ldi	r22, 0x50	; 80
    10f6:	73 e4       	ldi	r23, 0x43	; 67
    10f8:	80 e1       	ldi	r24, 0x10	; 16
    10fa:	c5 d8       	rcall	.-3702   	; 0x286 <reg_servo_angle>
    10fc:	40 e0       	ldi	r20, 0x00	; 0
    10fe:	50 e0       	ldi	r21, 0x00	; 0
    1100:	62 e9       	ldi	r22, 0x92	; 146
    1102:	72 e4       	ldi	r23, 0x42	; 66
    1104:	81 e1       	ldi	r24, 0x11	; 17
    1106:	bf d8       	rcall	.-3714   	; 0x286 <reg_servo_angle>
    1108:	2f ef       	ldi	r18, 0xFF	; 255
    110a:	87 ee       	ldi	r24, 0xE7	; 231
    110c:	93 e0       	ldi	r25, 0x03	; 3
    110e:	21 50       	subi	r18, 0x01	; 1
    1110:	80 40       	sbci	r24, 0x00	; 0
    1112:	90 40       	sbci	r25, 0x00	; 0
    1114:	e1 f7       	brne	.-8      	; 0x110e <five_forward_left+0xde>
    1116:	00 c0       	rjmp	.+0      	; 0x1118 <five_forward_left+0xe8>
    1118:	00 00       	nop
    111a:	25 c9       	rjmp	.-3510   	; 0x366 <action>
    111c:	08 95       	ret

0000111e <six_forward_left>:
    111e:	40 e0       	ldi	r20, 0x00	; 0
    1120:	50 e0       	ldi	r21, 0x00	; 0
    1122:	6b e1       	ldi	r22, 0x1B	; 27
    1124:	73 e4       	ldi	r23, 0x43	; 67
    1126:	86 e0       	ldi	r24, 0x06	; 6
    1128:	ae d8       	rcall	.-3748   	; 0x286 <reg_servo_angle>
    112a:	40 e0       	ldi	r20, 0x00	; 0
    112c:	50 e0       	ldi	r21, 0x00	; 0
    112e:	6a e9       	ldi	r22, 0x9A	; 154
    1130:	72 e4       	ldi	r23, 0x42	; 66
    1132:	87 e0       	ldi	r24, 0x07	; 7
    1134:	a8 d8       	rcall	.-3760   	; 0x286 <reg_servo_angle>
    1136:	40 e0       	ldi	r20, 0x00	; 0
    1138:	50 e0       	ldi	r21, 0x00	; 0
    113a:	68 e6       	ldi	r22, 0x68	; 104
    113c:	73 e4       	ldi	r23, 0x43	; 67
    113e:	88 e0       	ldi	r24, 0x08	; 8
    1140:	a2 d8       	rcall	.-3772   	; 0x286 <reg_servo_angle>
    1142:	40 e0       	ldi	r20, 0x00	; 0
    1144:	50 e0       	ldi	r21, 0x00	; 0
    1146:	66 e1       	ldi	r22, 0x16	; 22
    1148:	73 e4       	ldi	r23, 0x43	; 67
    114a:	89 e0       	ldi	r24, 0x09	; 9
    114c:	9c d8       	rcall	.-3784   	; 0x286 <reg_servo_angle>
    114e:	40 e0       	ldi	r20, 0x00	; 0
    1150:	50 e0       	ldi	r21, 0x00	; 0
    1152:	68 e4       	ldi	r22, 0x48	; 72
    1154:	73 e4       	ldi	r23, 0x43	; 67
    1156:	8a e0       	ldi	r24, 0x0A	; 10
    1158:	96 d8       	rcall	.-3796   	; 0x286 <reg_servo_angle>
    115a:	40 e0       	ldi	r20, 0x00	; 0
    115c:	50 e0       	ldi	r21, 0x00	; 0
    115e:	60 eb       	ldi	r22, 0xB0	; 176
    1160:	72 e4       	ldi	r23, 0x42	; 66
    1162:	8b e0       	ldi	r24, 0x0B	; 11
    1164:	90 d8       	rcall	.-3808   	; 0x286 <reg_servo_angle>
    1166:	40 e0       	ldi	r20, 0x00	; 0
    1168:	50 e0       	ldi	r21, 0x00	; 0
    116a:	66 e1       	ldi	r22, 0x16	; 22
    116c:	73 e4       	ldi	r23, 0x43	; 67
    116e:	83 e0       	ldi	r24, 0x03	; 3
    1170:	8a d8       	rcall	.-3820   	; 0x286 <reg_servo_angle>
    1172:	40 e0       	ldi	r20, 0x00	; 0
    1174:	50 e0       	ldi	r21, 0x00	; 0
    1176:	68 eb       	ldi	r22, 0xB8	; 184
    1178:	72 e4       	ldi	r23, 0x42	; 66
    117a:	84 e0       	ldi	r24, 0x04	; 4
    117c:	84 d8       	rcall	.-3832   	; 0x286 <reg_servo_angle>
    117e:	40 e0       	ldi	r20, 0x00	; 0
    1180:	50 e0       	ldi	r21, 0x00	; 0
    1182:	63 e6       	ldi	r22, 0x63	; 99
    1184:	73 e4       	ldi	r23, 0x43	; 67
    1186:	85 e0       	ldi	r24, 0x05	; 5
    1188:	7e d8       	rcall	.-3844   	; 0x286 <reg_servo_angle>
    118a:	40 e0       	ldi	r20, 0x00	; 0
    118c:	50 e0       	ldi	r21, 0x00	; 0
    118e:	66 e1       	ldi	r22, 0x16	; 22
    1190:	73 e4       	ldi	r23, 0x43	; 67
    1192:	8c e0       	ldi	r24, 0x0C	; 12
    1194:	78 d8       	rcall	.-3856   	; 0x286 <reg_servo_angle>
    1196:	40 e0       	ldi	r20, 0x00	; 0
    1198:	50 e0       	ldi	r21, 0x00	; 0
    119a:	62 e6       	ldi	r22, 0x62	; 98
    119c:	73 e4       	ldi	r23, 0x43	; 67
    119e:	8d e0       	ldi	r24, 0x0D	; 13
    11a0:	72 d8       	rcall	.-3868   	; 0x286 <reg_servo_angle>
    11a2:	40 e0       	ldi	r20, 0x00	; 0
    11a4:	50 e0       	ldi	r21, 0x00	; 0
    11a6:	6c e7       	ldi	r22, 0x7C	; 124
    11a8:	72 e4       	ldi	r23, 0x42	; 66
    11aa:	8e e0       	ldi	r24, 0x0E	; 14
    11ac:	6c d8       	rcall	.-3880   	; 0x286 <reg_servo_angle>
    11ae:	40 e0       	ldi	r20, 0x00	; 0
    11b0:	50 e0       	ldi	r21, 0x00	; 0
    11b2:	64 e1       	ldi	r22, 0x14	; 20
    11b4:	73 e4       	ldi	r23, 0x43	; 67
    11b6:	80 e0       	ldi	r24, 0x00	; 0
    11b8:	66 d8       	rcall	.-3892   	; 0x286 <reg_servo_angle>
    11ba:	40 e0       	ldi	r20, 0x00	; 0
    11bc:	50 e0       	ldi	r21, 0x00	; 0
    11be:	60 ea       	ldi	r22, 0xA0	; 160
    11c0:	72 e4       	ldi	r23, 0x42	; 66
    11c2:	81 e0       	ldi	r24, 0x01	; 1
    11c4:	60 d8       	rcall	.-3904   	; 0x286 <reg_servo_angle>
    11c6:	40 e0       	ldi	r20, 0x00	; 0
    11c8:	50 e0       	ldi	r21, 0x00	; 0
    11ca:	63 e6       	ldi	r22, 0x63	; 99
    11cc:	73 e4       	ldi	r23, 0x43	; 67
    11ce:	82 e0       	ldi	r24, 0x02	; 2
    11d0:	5a d8       	rcall	.-3916   	; 0x286 <reg_servo_angle>
    11d2:	40 e0       	ldi	r20, 0x00	; 0
    11d4:	50 e0       	ldi	r21, 0x00	; 0
    11d6:	68 e1       	ldi	r22, 0x18	; 24
    11d8:	73 e4       	ldi	r23, 0x43	; 67
    11da:	8f e0       	ldi	r24, 0x0F	; 15
    11dc:	54 d8       	rcall	.-3928   	; 0x286 <reg_servo_angle>
    11de:	40 e0       	ldi	r20, 0x00	; 0
    11e0:	50 e0       	ldi	r21, 0x00	; 0
    11e2:	6b e4       	ldi	r22, 0x4B	; 75
    11e4:	73 e4       	ldi	r23, 0x43	; 67
    11e6:	80 e1       	ldi	r24, 0x10	; 16
    11e8:	4e d8       	rcall	.-3940   	; 0x286 <reg_servo_angle>
    11ea:	40 e0       	ldi	r20, 0x00	; 0
    11ec:	50 e0       	ldi	r21, 0x00	; 0
    11ee:	64 ea       	ldi	r22, 0xA4	; 164
    11f0:	72 e4       	ldi	r23, 0x42	; 66
    11f2:	81 e1       	ldi	r24, 0x11	; 17
    11f4:	48 d8       	rcall	.-3952   	; 0x286 <reg_servo_angle>
    11f6:	2f ef       	ldi	r18, 0xFF	; 255
    11f8:	87 ee       	ldi	r24, 0xE7	; 231
    11fa:	93 e0       	ldi	r25, 0x03	; 3
    11fc:	21 50       	subi	r18, 0x01	; 1
    11fe:	80 40       	sbci	r24, 0x00	; 0
    1200:	90 40       	sbci	r25, 0x00	; 0
    1202:	e1 f7       	brne	.-8      	; 0x11fc <six_forward_left+0xde>
    1204:	00 c0       	rjmp	.+0      	; 0x1206 <six_forward_left+0xe8>
    1206:	00 00       	nop
    1208:	ae c8       	rjmp	.-3748   	; 0x366 <action>
    120a:	08 95       	ret

0000120c <seven_forward_left>:
    120c:	40 e0       	ldi	r20, 0x00	; 0
    120e:	50 e0       	ldi	r21, 0x00	; 0
    1210:	62 e2       	ldi	r22, 0x22	; 34
    1212:	73 e4       	ldi	r23, 0x43	; 67
    1214:	86 e0       	ldi	r24, 0x06	; 6
    1216:	37 d8       	rcall	.-3986   	; 0x286 <reg_servo_angle>
    1218:	40 e0       	ldi	r20, 0x00	; 0
    121a:	50 e0       	ldi	r21, 0x00	; 0
    121c:	64 ea       	ldi	r22, 0xA4	; 164
    121e:	72 e4       	ldi	r23, 0x42	; 66
    1220:	87 e0       	ldi	r24, 0x07	; 7
    1222:	31 d8       	rcall	.-3998   	; 0x286 <reg_servo_angle>
    1224:	40 e0       	ldi	r20, 0x00	; 0
    1226:	50 e0       	ldi	r21, 0x00	; 0
    1228:	61 e6       	ldi	r22, 0x61	; 97
    122a:	73 e4       	ldi	r23, 0x43	; 67
    122c:	88 e0       	ldi	r24, 0x08	; 8
    122e:	2b d8       	rcall	.-4010   	; 0x286 <reg_servo_angle>
    1230:	40 e0       	ldi	r20, 0x00	; 0
    1232:	50 e0       	ldi	r21, 0x00	; 0
    1234:	69 e1       	ldi	r22, 0x19	; 25
    1236:	73 e4       	ldi	r23, 0x43	; 67
    1238:	89 e0       	ldi	r24, 0x09	; 9
    123a:	25 d8       	rcall	.-4022   	; 0x286 <reg_servo_angle>
    123c:	40 e0       	ldi	r20, 0x00	; 0
    123e:	50 e0       	ldi	r21, 0x00	; 0
    1240:	60 e5       	ldi	r22, 0x50	; 80
    1242:	73 e4       	ldi	r23, 0x43	; 67
    1244:	8a e0       	ldi	r24, 0x0A	; 10
    1246:	1f d8       	rcall	.-4034   	; 0x286 <reg_servo_angle>
    1248:	40 e0       	ldi	r20, 0x00	; 0
    124a:	50 e0       	ldi	r21, 0x00	; 0
    124c:	62 e9       	ldi	r22, 0x92	; 146
    124e:	72 e4       	ldi	r23, 0x42	; 66
    1250:	8b e0       	ldi	r24, 0x0B	; 11
    1252:	19 d8       	rcall	.-4046   	; 0x286 <reg_servo_angle>
    1254:	40 e0       	ldi	r20, 0x00	; 0
    1256:	50 e0       	ldi	r21, 0x00	; 0
    1258:	6e e0       	ldi	r22, 0x0E	; 14
    125a:	73 e4       	ldi	r23, 0x43	; 67
    125c:	83 e0       	ldi	r24, 0x03	; 3
    125e:	13 d8       	rcall	.-4058   	; 0x286 <reg_servo_angle>
    1260:	40 e0       	ldi	r20, 0x00	; 0
    1262:	50 e0       	ldi	r21, 0x00	; 0
    1264:	6a eb       	ldi	r22, 0xBA	; 186
    1266:	72 e4       	ldi	r23, 0x42	; 66
    1268:	84 e0       	ldi	r24, 0x04	; 4
    126a:	0d d8       	rcall	.-4070   	; 0x286 <reg_servo_angle>
    126c:	40 e0       	ldi	r20, 0x00	; 0
    126e:	50 e0       	ldi	r21, 0x00	; 0
    1270:	62 e6       	ldi	r22, 0x62	; 98
    1272:	73 e4       	ldi	r23, 0x43	; 67
    1274:	85 e0       	ldi	r24, 0x05	; 5
    1276:	07 d8       	rcall	.-4082   	; 0x286 <reg_servo_angle>
    1278:	40 e0       	ldi	r20, 0x00	; 0
    127a:	50 e0       	ldi	r21, 0x00	; 0
    127c:	6e e0       	ldi	r22, 0x0E	; 14
    127e:	73 e4       	ldi	r23, 0x43	; 67
    1280:	8c e0       	ldi	r24, 0x0C	; 12
    1282:	01 d8       	rcall	.-4094   	; 0x286 <reg_servo_angle>
    1284:	40 e0       	ldi	r20, 0x00	; 0
    1286:	50 e0       	ldi	r21, 0x00	; 0
    1288:	61 e6       	ldi	r22, 0x61	; 97
    128a:	73 e4       	ldi	r23, 0x43	; 67
    128c:	8d e0       	ldi	r24, 0x0D	; 13
    128e:	0e 94 43 01 	call	0x286	; 0x286 <reg_servo_angle>
    1292:	40 e0       	ldi	r20, 0x00	; 0
    1294:	50 e0       	ldi	r21, 0x00	; 0
    1296:	60 e8       	ldi	r22, 0x80	; 128
    1298:	72 e4       	ldi	r23, 0x42	; 66
    129a:	8e e0       	ldi	r24, 0x0E	; 14
    129c:	0e 94 43 01 	call	0x286	; 0x286 <reg_servo_angle>
    12a0:	40 e0       	ldi	r20, 0x00	; 0
    12a2:	50 e0       	ldi	r21, 0x00	; 0
    12a4:	69 e1       	ldi	r22, 0x19	; 25
    12a6:	73 e4       	ldi	r23, 0x43	; 67
    12a8:	80 e0       	ldi	r24, 0x00	; 0
    12aa:	0e 94 43 01 	call	0x286	; 0x286 <reg_servo_angle>
    12ae:	40 e0       	ldi	r20, 0x00	; 0
    12b0:	50 e0       	ldi	r21, 0x00	; 0
    12b2:	62 e9       	ldi	r22, 0x92	; 146
    12b4:	72 e4       	ldi	r23, 0x42	; 66
    12b6:	81 e0       	ldi	r24, 0x01	; 1
    12b8:	0e 94 43 01 	call	0x286	; 0x286 <reg_servo_angle>
    12bc:	40 e0       	ldi	r20, 0x00	; 0
    12be:	50 e0       	ldi	r21, 0x00	; 0
    12c0:	6e e6       	ldi	r22, 0x6E	; 110
    12c2:	73 e4       	ldi	r23, 0x43	; 67
    12c4:	82 e0       	ldi	r24, 0x02	; 2
    12c6:	0e 94 43 01 	call	0x286	; 0x286 <reg_servo_angle>
    12ca:	40 e0       	ldi	r20, 0x00	; 0
    12cc:	50 e0       	ldi	r21, 0x00	; 0
    12ce:	6d e1       	ldi	r22, 0x1D	; 29
    12d0:	73 e4       	ldi	r23, 0x43	; 67
    12d2:	8f e0       	ldi	r24, 0x0F	; 15
    12d4:	0e 94 43 01 	call	0x286	; 0x286 <reg_servo_angle>
    12d8:	40 e0       	ldi	r20, 0x00	; 0
    12da:	50 e0       	ldi	r21, 0x00	; 0
    12dc:	65 e4       	ldi	r22, 0x45	; 69
    12de:	73 e4       	ldi	r23, 0x43	; 67
    12e0:	80 e1       	ldi	r24, 0x10	; 16
    12e2:	0e 94 43 01 	call	0x286	; 0x286 <reg_servo_angle>
    12e6:	40 e0       	ldi	r20, 0x00	; 0
    12e8:	50 e0       	ldi	r21, 0x00	; 0
    12ea:	6c eb       	ldi	r22, 0xBC	; 188
    12ec:	72 e4       	ldi	r23, 0x42	; 66
    12ee:	81 e1       	ldi	r24, 0x11	; 17
    12f0:	0e 94 43 01 	call	0x286	; 0x286 <reg_servo_angle>
    12f4:	2f ef       	ldi	r18, 0xFF	; 255
    12f6:	87 ee       	ldi	r24, 0xE7	; 231
    12f8:	93 e0       	ldi	r25, 0x03	; 3
    12fa:	21 50       	subi	r18, 0x01	; 1
    12fc:	80 40       	sbci	r24, 0x00	; 0
    12fe:	90 40       	sbci	r25, 0x00	; 0
    1300:	e1 f7       	brne	.-8      	; 0x12fa <seven_forward_left+0xee>
    1302:	00 c0       	rjmp	.+0      	; 0x1304 <seven_forward_left+0xf8>
    1304:	00 00       	nop
    1306:	2f c8       	rjmp	.-4002   	; 0x366 <action>
    1308:	08 95       	ret

0000130a <eight_forward_left>:
    130a:	40 e0       	ldi	r20, 0x00	; 0
    130c:	50 e0       	ldi	r21, 0x00	; 0
    130e:	62 e2       	ldi	r22, 0x22	; 34
    1310:	73 e4       	ldi	r23, 0x43	; 67
    1312:	86 e0       	ldi	r24, 0x06	; 6
    1314:	0e 94 43 01 	call	0x286	; 0x286 <reg_servo_angle>
    1318:	40 e0       	ldi	r20, 0x00	; 0
    131a:	50 e0       	ldi	r21, 0x00	; 0
    131c:	64 ec       	ldi	r22, 0xC4	; 196
    131e:	72 e4       	ldi	r23, 0x42	; 66
    1320:	87 e0       	ldi	r24, 0x07	; 7
    1322:	0e 94 43 01 	call	0x286	; 0x286 <reg_servo_angle>
    1326:	40 e0       	ldi	r20, 0x00	; 0
    1328:	50 e0       	ldi	r21, 0x00	; 0
    132a:	67 e5       	ldi	r22, 0x57	; 87
    132c:	73 e4       	ldi	r23, 0x43	; 67
    132e:	88 e0       	ldi	r24, 0x08	; 8
    1330:	0e 94 43 01 	call	0x286	; 0x286 <reg_servo_angle>
    1334:	40 e0       	ldi	r20, 0x00	; 0
    1336:	50 e0       	ldi	r21, 0x00	; 0
    1338:	69 e1       	ldi	r22, 0x19	; 25
    133a:	73 e4       	ldi	r23, 0x43	; 67
    133c:	89 e0       	ldi	r24, 0x09	; 9
    133e:	0e 94 43 01 	call	0x286	; 0x286 <reg_servo_angle>
    1342:	40 e0       	ldi	r20, 0x00	; 0
    1344:	50 e0       	ldi	r21, 0x00	; 0
    1346:	60 e5       	ldi	r22, 0x50	; 80
    1348:	73 e4       	ldi	r23, 0x43	; 67
    134a:	8a e0       	ldi	r24, 0x0A	; 10
    134c:	0e 94 43 01 	call	0x286	; 0x286 <reg_servo_angle>
    1350:	40 e0       	ldi	r20, 0x00	; 0
    1352:	50 e0       	ldi	r21, 0x00	; 0
    1354:	62 e9       	ldi	r22, 0x92	; 146
    1356:	72 e4       	ldi	r23, 0x42	; 66
    1358:	8b e0       	ldi	r24, 0x0B	; 11
    135a:	0e 94 43 01 	call	0x286	; 0x286 <reg_servo_angle>
    135e:	40 e0       	ldi	r20, 0x00	; 0
    1360:	50 e0       	ldi	r21, 0x00	; 0
    1362:	6e e0       	ldi	r22, 0x0E	; 14
    1364:	73 e4       	ldi	r23, 0x43	; 67
    1366:	83 e0       	ldi	r24, 0x03	; 3
    1368:	0e 94 43 01 	call	0x286	; 0x286 <reg_servo_angle>
    136c:	40 e0       	ldi	r20, 0x00	; 0
    136e:	50 e0       	ldi	r21, 0x00	; 0
    1370:	6a eb       	ldi	r22, 0xBA	; 186
    1372:	72 e4       	ldi	r23, 0x42	; 66
    1374:	84 e0       	ldi	r24, 0x04	; 4
    1376:	0e 94 43 01 	call	0x286	; 0x286 <reg_servo_angle>
    137a:	40 e0       	ldi	r20, 0x00	; 0
    137c:	50 e0       	ldi	r21, 0x00	; 0
    137e:	62 e6       	ldi	r22, 0x62	; 98
    1380:	73 e4       	ldi	r23, 0x43	; 67
    1382:	85 e0       	ldi	r24, 0x05	; 5
    1384:	0e 94 43 01 	call	0x286	; 0x286 <reg_servo_angle>
    1388:	40 e0       	ldi	r20, 0x00	; 0
    138a:	50 e0       	ldi	r21, 0x00	; 0
    138c:	6e e0       	ldi	r22, 0x0E	; 14
    138e:	73 e4       	ldi	r23, 0x43	; 67
    1390:	8c e0       	ldi	r24, 0x0C	; 12
    1392:	0e 94 43 01 	call	0x286	; 0x286 <reg_servo_angle>
    1396:	40 e0       	ldi	r20, 0x00	; 0
    1398:	50 e0       	ldi	r21, 0x00	; 0
    139a:	6f e4       	ldi	r22, 0x4F	; 79
    139c:	73 e4       	ldi	r23, 0x43	; 67
    139e:	8d e0       	ldi	r24, 0x0D	; 13
    13a0:	0e 94 43 01 	call	0x286	; 0x286 <reg_servo_angle>
    13a4:	40 e0       	ldi	r20, 0x00	; 0
    13a6:	50 e0       	ldi	r21, 0x00	; 0
    13a8:	64 e9       	ldi	r22, 0x94	; 148
    13aa:	72 e4       	ldi	r23, 0x42	; 66
    13ac:	8e e0       	ldi	r24, 0x0E	; 14
    13ae:	0e 94 43 01 	call	0x286	; 0x286 <reg_servo_angle>
    13b2:	40 e0       	ldi	r20, 0x00	; 0
    13b4:	50 e0       	ldi	r21, 0x00	; 0
    13b6:	69 e1       	ldi	r22, 0x19	; 25
    13b8:	73 e4       	ldi	r23, 0x43	; 67
    13ba:	80 e0       	ldi	r24, 0x00	; 0
    13bc:	0e 94 43 01 	call	0x286	; 0x286 <reg_servo_angle>
    13c0:	40 e0       	ldi	r20, 0x00	; 0
    13c2:	50 e0       	ldi	r21, 0x00	; 0
    13c4:	68 eb       	ldi	r22, 0xB8	; 184
    13c6:	72 e4       	ldi	r23, 0x42	; 66
    13c8:	81 e0       	ldi	r24, 0x01	; 1
    13ca:	0e 94 43 01 	call	0x286	; 0x286 <reg_servo_angle>
    13ce:	40 e0       	ldi	r20, 0x00	; 0
    13d0:	50 e0       	ldi	r21, 0x00	; 0
    13d2:	63 e6       	ldi	r22, 0x63	; 99
    13d4:	73 e4       	ldi	r23, 0x43	; 67
    13d6:	82 e0       	ldi	r24, 0x02	; 2
    13d8:	0e 94 43 01 	call	0x286	; 0x286 <reg_servo_angle>
    13dc:	40 e0       	ldi	r20, 0x00	; 0
    13de:	50 e0       	ldi	r21, 0x00	; 0
    13e0:	6d e1       	ldi	r22, 0x1D	; 29
    13e2:	73 e4       	ldi	r23, 0x43	; 67
    13e4:	8f e0       	ldi	r24, 0x0F	; 15
    13e6:	0e 94 43 01 	call	0x286	; 0x286 <reg_servo_angle>
    13ea:	40 e0       	ldi	r20, 0x00	; 0
    13ec:	50 e0       	ldi	r21, 0x00	; 0
    13ee:	65 e4       	ldi	r22, 0x45	; 69
    13f0:	73 e4       	ldi	r23, 0x43	; 67
    13f2:	80 e1       	ldi	r24, 0x10	; 16
    13f4:	0e 94 43 01 	call	0x286	; 0x286 <reg_servo_angle>
    13f8:	40 e0       	ldi	r20, 0x00	; 0
    13fa:	50 e0       	ldi	r21, 0x00	; 0
    13fc:	6c eb       	ldi	r22, 0xBC	; 188
    13fe:	72 e4       	ldi	r23, 0x42	; 66
    1400:	81 e1       	ldi	r24, 0x11	; 17
    1402:	0e 94 43 01 	call	0x286	; 0x286 <reg_servo_angle>
    1406:	2f ef       	ldi	r18, 0xFF	; 255
    1408:	87 ee       	ldi	r24, 0xE7	; 231
    140a:	93 e0       	ldi	r25, 0x03	; 3
    140c:	21 50       	subi	r18, 0x01	; 1
    140e:	80 40       	sbci	r24, 0x00	; 0
    1410:	90 40       	sbci	r25, 0x00	; 0
    1412:	e1 f7       	brne	.-8      	; 0x140c <eight_forward_left+0x102>
    1414:	00 c0       	rjmp	.+0      	; 0x1416 <eight_forward_left+0x10c>
    1416:	00 00       	nop
    1418:	0c 94 b3 01 	jmp	0x366	; 0x366 <action>
    141c:	08 95       	ret

0000141e <walk_forward_left>:
    141e:	75 df       	rcall	.-278    	; 0x130a <eight_forward_left>
    1420:	2b dc       	rcall	.-1962   	; 0xc78 <one_forward_left>
    1422:	a1 dc       	rcall	.-1726   	; 0xd66 <two_forward_left>
    1424:	17 dd       	rcall	.-1490   	; 0xe54 <three_forward_left>
    1426:	8d dd       	rcall	.-1254   	; 0xf42 <four_forward_left>
    1428:	8c dd       	rcall	.-1256   	; 0xf42 <four_forward_left>
    142a:	02 de       	rcall	.-1020   	; 0x1030 <five_forward_left>
    142c:	78 de       	rcall	.-784    	; 0x111e <six_forward_left>
    142e:	ee de       	rcall	.-548    	; 0x120c <seven_forward_left>
    1430:	6c cf       	rjmp	.-296    	; 0x130a <eight_forward_left>
    1432:	08 95       	ret

00001434 <one_rot_left60>:
    1434:	40 e0       	ldi	r20, 0x00	; 0
    1436:	50 e0       	ldi	r21, 0x00	; 0
    1438:	66 e1       	ldi	r22, 0x16	; 22
    143a:	73 e4       	ldi	r23, 0x43	; 67
    143c:	86 e0       	ldi	r24, 0x06	; 6
    143e:	0e 94 43 01 	call	0x286	; 0x286 <reg_servo_angle>
    1442:	40 e0       	ldi	r20, 0x00	; 0
    1444:	50 e0       	ldi	r21, 0x00	; 0
    1446:	6e eb       	ldi	r22, 0xBE	; 190
    1448:	72 e4       	ldi	r23, 0x42	; 66
    144a:	87 e0       	ldi	r24, 0x07	; 7
    144c:	0e 94 43 01 	call	0x286	; 0x286 <reg_servo_angle>
    1450:	40 e0       	ldi	r20, 0x00	; 0
    1452:	50 e0       	ldi	r21, 0x00	; 0
    1454:	6d e5       	ldi	r22, 0x5D	; 93
    1456:	73 e4       	ldi	r23, 0x43	; 67
    1458:	88 e0       	ldi	r24, 0x08	; 8
    145a:	0e 94 43 01 	call	0x286	; 0x286 <reg_servo_angle>
    145e:	40 e0       	ldi	r20, 0x00	; 0
    1460:	50 e0       	ldi	r21, 0x00	; 0
    1462:	66 e1       	ldi	r22, 0x16	; 22
    1464:	73 e4       	ldi	r23, 0x43	; 67
    1466:	89 e0       	ldi	r24, 0x09	; 9
    1468:	0e 94 43 01 	call	0x286	; 0x286 <reg_servo_angle>
    146c:	40 e0       	ldi	r20, 0x00	; 0
    146e:	50 e0       	ldi	r21, 0x00	; 0
    1470:	6e e5       	ldi	r22, 0x5E	; 94
    1472:	73 e4       	ldi	r23, 0x43	; 67
    1474:	8a e0       	ldi	r24, 0x0A	; 10
    1476:	0e 94 43 01 	call	0x286	; 0x286 <reg_servo_angle>
    147a:	40 e0       	ldi	r20, 0x00	; 0
    147c:	50 e0       	ldi	r21, 0x00	; 0
    147e:	6a e8       	ldi	r22, 0x8A	; 138
    1480:	72 e4       	ldi	r23, 0x42	; 66
    1482:	8b e0       	ldi	r24, 0x0B	; 11
    1484:	0e 94 43 01 	call	0x286	; 0x286 <reg_servo_angle>
    1488:	40 e0       	ldi	r20, 0x00	; 0
    148a:	50 e0       	ldi	r21, 0x00	; 0
    148c:	65 e2       	ldi	r22, 0x25	; 37
    148e:	73 e4       	ldi	r23, 0x43	; 67
    1490:	83 e0       	ldi	r24, 0x03	; 3
    1492:	0e 94 43 01 	call	0x286	; 0x286 <reg_servo_angle>
    1496:	40 e0       	ldi	r20, 0x00	; 0
    1498:	50 e0       	ldi	r21, 0x00	; 0
    149a:	60 ea       	ldi	r22, 0xA0	; 160
    149c:	72 e4       	ldi	r23, 0x42	; 66
    149e:	84 e0       	ldi	r24, 0x04	; 4
    14a0:	0e 94 43 01 	call	0x286	; 0x286 <reg_servo_angle>
    14a4:	40 e0       	ldi	r20, 0x00	; 0
    14a6:	50 e0       	ldi	r21, 0x00	; 0
    14a8:	64 e6       	ldi	r22, 0x64	; 100
    14aa:	73 e4       	ldi	r23, 0x43	; 67
    14ac:	85 e0       	ldi	r24, 0x05	; 5
    14ae:	0e 94 43 01 	call	0x286	; 0x286 <reg_servo_angle>
    14b2:	40 e0       	ldi	r20, 0x00	; 0
    14b4:	50 e0       	ldi	r21, 0x00	; 0
    14b6:	67 e0       	ldi	r22, 0x07	; 7
    14b8:	73 e4       	ldi	r23, 0x43	; 67
    14ba:	8c e0       	ldi	r24, 0x0C	; 12
    14bc:	0e 94 43 01 	call	0x286	; 0x286 <reg_servo_angle>
    14c0:	40 e0       	ldi	r20, 0x00	; 0
    14c2:	50 e0       	ldi	r21, 0x00	; 0
    14c4:	6b e4       	ldi	r22, 0x4B	; 75
    14c6:	73 e4       	ldi	r23, 0x43	; 67
    14c8:	8d e0       	ldi	r24, 0x0D	; 13
    14ca:	0e 94 43 01 	call	0x286	; 0x286 <reg_servo_angle>
    14ce:	40 e0       	ldi	r20, 0x00	; 0
    14d0:	50 e0       	ldi	r21, 0x00	; 0
    14d2:	64 ea       	ldi	r22, 0xA4	; 164
    14d4:	72 e4       	ldi	r23, 0x42	; 66
    14d6:	8e e0       	ldi	r24, 0x0E	; 14
    14d8:	0e 94 43 01 	call	0x286	; 0x286 <reg_servo_angle>
    14dc:	40 e0       	ldi	r20, 0x00	; 0
    14de:	50 e0       	ldi	r21, 0x00	; 0
    14e0:	60 ef       	ldi	r22, 0xF0	; 240
    14e2:	72 e4       	ldi	r23, 0x42	; 66
    14e4:	80 e0       	ldi	r24, 0x00	; 0
    14e6:	0e 94 43 01 	call	0x286	; 0x286 <reg_servo_angle>
    14ea:	40 e0       	ldi	r20, 0x00	; 0
    14ec:	50 e0       	ldi	r21, 0x00	; 0
    14ee:	6c eb       	ldi	r22, 0xBC	; 188
    14f0:	72 e4       	ldi	r23, 0x42	; 66
    14f2:	81 e0       	ldi	r24, 0x01	; 1
    14f4:	0e 94 43 01 	call	0x286	; 0x286 <reg_servo_angle>
    14f8:	40 e0       	ldi	r20, 0x00	; 0
    14fa:	50 e0       	ldi	r21, 0x00	; 0
    14fc:	6f e5       	ldi	r22, 0x5F	; 95
    14fe:	73 e4       	ldi	r23, 0x43	; 67
    1500:	82 e0       	ldi	r24, 0x02	; 2
    1502:	0e 94 43 01 	call	0x286	; 0x286 <reg_servo_angle>
    1506:	40 e0       	ldi	r20, 0x00	; 0
    1508:	50 e0       	ldi	r21, 0x00	; 0
    150a:	64 e3       	ldi	r22, 0x34	; 52
    150c:	73 e4       	ldi	r23, 0x43	; 67
    150e:	8f e0       	ldi	r24, 0x0F	; 15
    1510:	0e 94 43 01 	call	0x286	; 0x286 <reg_servo_angle>
    1514:	40 e0       	ldi	r20, 0x00	; 0
    1516:	50 e0       	ldi	r21, 0x00	; 0
    1518:	6f e5       	ldi	r22, 0x5F	; 95
    151a:	73 e4       	ldi	r23, 0x43	; 67
    151c:	80 e1       	ldi	r24, 0x10	; 16
    151e:	0e 94 43 01 	call	0x286	; 0x286 <reg_servo_angle>
    1522:	40 e0       	ldi	r20, 0x00	; 0
    1524:	50 e0       	ldi	r21, 0x00	; 0
    1526:	66 e8       	ldi	r22, 0x86	; 134
    1528:	72 e4       	ldi	r23, 0x42	; 66
    152a:	81 e1       	ldi	r24, 0x11	; 17
    152c:	0e 94 43 01 	call	0x286	; 0x286 <reg_servo_angle>
    1530:	2f ef       	ldi	r18, 0xFF	; 255
    1532:	87 ee       	ldi	r24, 0xE7	; 231
    1534:	93 e0       	ldi	r25, 0x03	; 3
    1536:	21 50       	subi	r18, 0x01	; 1
    1538:	80 40       	sbci	r24, 0x00	; 0
    153a:	90 40       	sbci	r25, 0x00	; 0
    153c:	e1 f7       	brne	.-8      	; 0x1536 <one_rot_left60+0x102>
    153e:	00 c0       	rjmp	.+0      	; 0x1540 <one_rot_left60+0x10c>
    1540:	00 00       	nop
    1542:	0c 94 b3 01 	jmp	0x366	; 0x366 <action>
    1546:	08 95       	ret

00001548 <two_rot_left60>:
    1548:	40 e0       	ldi	r20, 0x00	; 0
    154a:	50 e0       	ldi	r21, 0x00	; 0
    154c:	65 e2       	ldi	r22, 0x25	; 37
    154e:	73 e4       	ldi	r23, 0x43	; 67
    1550:	86 e0       	ldi	r24, 0x06	; 6
    1552:	0e 94 43 01 	call	0x286	; 0x286 <reg_servo_angle>
    1556:	40 e0       	ldi	r20, 0x00	; 0
    1558:	50 e0       	ldi	r21, 0x00	; 0
    155a:	6c eb       	ldi	r22, 0xBC	; 188
    155c:	72 e4       	ldi	r23, 0x42	; 66
    155e:	87 e0       	ldi	r24, 0x07	; 7
    1560:	0e 94 43 01 	call	0x286	; 0x286 <reg_servo_angle>
    1564:	40 e0       	ldi	r20, 0x00	; 0
    1566:	50 e0       	ldi	r21, 0x00	; 0
    1568:	60 e6       	ldi	r22, 0x60	; 96
    156a:	73 e4       	ldi	r23, 0x43	; 67
    156c:	88 e0       	ldi	r24, 0x08	; 8
    156e:	0e 94 43 01 	call	0x286	; 0x286 <reg_servo_angle>
    1572:	40 e0       	ldi	r20, 0x00	; 0
    1574:	50 e0       	ldi	r21, 0x00	; 0
    1576:	67 e0       	ldi	r22, 0x07	; 7
    1578:	73 e4       	ldi	r23, 0x43	; 67
    157a:	89 e0       	ldi	r24, 0x09	; 9
    157c:	0e 94 43 01 	call	0x286	; 0x286 <reg_servo_angle>
    1580:	40 e0       	ldi	r20, 0x00	; 0
    1582:	50 e0       	ldi	r21, 0x00	; 0
    1584:	60 e6       	ldi	r22, 0x60	; 96
    1586:	73 e4       	ldi	r23, 0x43	; 67
    1588:	8a e0       	ldi	r24, 0x0A	; 10
    158a:	0e 94 43 01 	call	0x286	; 0x286 <reg_servo_angle>
    158e:	40 e0       	ldi	r20, 0x00	; 0
    1590:	50 e0       	ldi	r21, 0x00	; 0
    1592:	64 e8       	ldi	r22, 0x84	; 132
    1594:	72 e4       	ldi	r23, 0x42	; 66
    1596:	8b e0       	ldi	r24, 0x0B	; 11
    1598:	0e 94 43 01 	call	0x286	; 0x286 <reg_servo_angle>
    159c:	40 e0       	ldi	r20, 0x00	; 0
    159e:	50 e0       	ldi	r21, 0x00	; 0
    15a0:	66 e1       	ldi	r22, 0x16	; 22
    15a2:	73 e4       	ldi	r23, 0x43	; 67
    15a4:	83 e0       	ldi	r24, 0x03	; 3
    15a6:	0e 94 43 01 	call	0x286	; 0x286 <reg_servo_angle>
    15aa:	40 e0       	ldi	r20, 0x00	; 0
    15ac:	50 e0       	ldi	r21, 0x00	; 0
    15ae:	6e e9       	ldi	r22, 0x9E	; 158
    15b0:	72 e4       	ldi	r23, 0x42	; 66
    15b2:	84 e0       	ldi	r24, 0x04	; 4
    15b4:	0e 94 43 01 	call	0x286	; 0x286 <reg_servo_angle>
    15b8:	40 e0       	ldi	r20, 0x00	; 0
    15ba:	50 e0       	ldi	r21, 0x00	; 0
    15bc:	65 e6       	ldi	r22, 0x65	; 101
    15be:	73 e4       	ldi	r23, 0x43	; 67
    15c0:	85 e0       	ldi	r24, 0x05	; 5
    15c2:	0e 94 43 01 	call	0x286	; 0x286 <reg_servo_angle>
    15c6:	40 e0       	ldi	r20, 0x00	; 0
    15c8:	50 e0       	ldi	r21, 0x00	; 0
    15ca:	66 e1       	ldi	r22, 0x16	; 22
    15cc:	73 e4       	ldi	r23, 0x43	; 67
    15ce:	8c e0       	ldi	r24, 0x0C	; 12
    15d0:	0e 94 43 01 	call	0x286	; 0x286 <reg_servo_angle>
    15d4:	40 e0       	ldi	r20, 0x00	; 0
    15d6:	50 e0       	ldi	r21, 0x00	; 0
    15d8:	6c e4       	ldi	r22, 0x4C	; 76
    15da:	73 e4       	ldi	r23, 0x43	; 67
    15dc:	8d e0       	ldi	r24, 0x0D	; 13
    15de:	0e 94 43 01 	call	0x286	; 0x286 <reg_servo_angle>
    15e2:	40 e0       	ldi	r20, 0x00	; 0
    15e4:	50 e0       	ldi	r21, 0x00	; 0
    15e6:	60 ea       	ldi	r22, 0xA0	; 160
    15e8:	72 e4       	ldi	r23, 0x42	; 66
    15ea:	8e e0       	ldi	r24, 0x0E	; 14
    15ec:	0e 94 43 01 	call	0x286	; 0x286 <reg_servo_angle>
    15f0:	40 e0       	ldi	r20, 0x00	; 0
    15f2:	50 e0       	ldi	r21, 0x00	; 0
    15f4:	67 e0       	ldi	r22, 0x07	; 7
    15f6:	73 e4       	ldi	r23, 0x43	; 67
    15f8:	80 e0       	ldi	r24, 0x00	; 0
    15fa:	0e 94 43 01 	call	0x286	; 0x286 <reg_servo_angle>
    15fe:	40 e0       	ldi	r20, 0x00	; 0
    1600:	50 e0       	ldi	r21, 0x00	; 0
    1602:	6c eb       	ldi	r22, 0xBC	; 188
    1604:	72 e4       	ldi	r23, 0x42	; 66
    1606:	81 e0       	ldi	r24, 0x01	; 1
    1608:	0e 94 43 01 	call	0x286	; 0x286 <reg_servo_angle>
    160c:	40 e0       	ldi	r20, 0x00	; 0
    160e:	50 e0       	ldi	r21, 0x00	; 0
    1610:	60 e6       	ldi	r22, 0x60	; 96
    1612:	73 e4       	ldi	r23, 0x43	; 67
    1614:	82 e0       	ldi	r24, 0x02	; 2
    1616:	0e 94 43 01 	call	0x286	; 0x286 <reg_servo_angle>
    161a:	40 e0       	ldi	r20, 0x00	; 0
    161c:	50 e0       	ldi	r21, 0x00	; 0
    161e:	65 e2       	ldi	r22, 0x25	; 37
    1620:	73 e4       	ldi	r23, 0x43	; 67
    1622:	8f e0       	ldi	r24, 0x0F	; 15
    1624:	0e 94 43 01 	call	0x286	; 0x286 <reg_servo_angle>
    1628:	40 e0       	ldi	r20, 0x00	; 0
    162a:	50 e0       	ldi	r21, 0x00	; 0
    162c:	60 e6       	ldi	r22, 0x60	; 96
    162e:	73 e4       	ldi	r23, 0x43	; 67
    1630:	80 e1       	ldi	r24, 0x10	; 16
    1632:	0e 94 43 01 	call	0x286	; 0x286 <reg_servo_angle>
    1636:	40 e0       	ldi	r20, 0x00	; 0
    1638:	50 e0       	ldi	r21, 0x00	; 0
    163a:	64 e8       	ldi	r22, 0x84	; 132
    163c:	72 e4       	ldi	r23, 0x42	; 66
    163e:	81 e1       	ldi	r24, 0x11	; 17
    1640:	0e 94 43 01 	call	0x286	; 0x286 <reg_servo_angle>
    1644:	2f ef       	ldi	r18, 0xFF	; 255
    1646:	87 ee       	ldi	r24, 0xE7	; 231
    1648:	93 e0       	ldi	r25, 0x03	; 3
    164a:	21 50       	subi	r18, 0x01	; 1
    164c:	80 40       	sbci	r24, 0x00	; 0
    164e:	90 40       	sbci	r25, 0x00	; 0
    1650:	e1 f7       	brne	.-8      	; 0x164a <two_rot_left60+0x102>
    1652:	00 c0       	rjmp	.+0      	; 0x1654 <two_rot_left60+0x10c>
    1654:	00 00       	nop
    1656:	0c 94 b3 01 	jmp	0x366	; 0x366 <action>
    165a:	08 95       	ret

0000165c <three_rot_left60>:
    165c:	40 e0       	ldi	r20, 0x00	; 0
    165e:	50 e0       	ldi	r21, 0x00	; 0
    1660:	64 e3       	ldi	r22, 0x34	; 52
    1662:	73 e4       	ldi	r23, 0x43	; 67
    1664:	86 e0       	ldi	r24, 0x06	; 6
    1666:	0e 94 43 01 	call	0x286	; 0x286 <reg_servo_angle>
    166a:	40 e0       	ldi	r20, 0x00	; 0
    166c:	50 e0       	ldi	r21, 0x00	; 0
    166e:	6c eb       	ldi	r22, 0xBC	; 188
    1670:	72 e4       	ldi	r23, 0x42	; 66
    1672:	87 e0       	ldi	r24, 0x07	; 7
    1674:	0e 94 43 01 	call	0x286	; 0x286 <reg_servo_angle>
    1678:	40 e0       	ldi	r20, 0x00	; 0
    167a:	50 e0       	ldi	r21, 0x00	; 0
    167c:	6f e5       	ldi	r22, 0x5F	; 95
    167e:	73 e4       	ldi	r23, 0x43	; 67
    1680:	88 e0       	ldi	r24, 0x08	; 8
    1682:	0e 94 43 01 	call	0x286	; 0x286 <reg_servo_angle>
    1686:	40 e0       	ldi	r20, 0x00	; 0
    1688:	50 e0       	ldi	r21, 0x00	; 0
    168a:	60 ef       	ldi	r22, 0xF0	; 240
    168c:	72 e4       	ldi	r23, 0x42	; 66
    168e:	89 e0       	ldi	r24, 0x09	; 9
    1690:	0e 94 43 01 	call	0x286	; 0x286 <reg_servo_angle>
    1694:	40 e0       	ldi	r20, 0x00	; 0
    1696:	50 e0       	ldi	r21, 0x00	; 0
    1698:	6f e5       	ldi	r22, 0x5F	; 95
    169a:	73 e4       	ldi	r23, 0x43	; 67
    169c:	8a e0       	ldi	r24, 0x0A	; 10
    169e:	0e 94 43 01 	call	0x286	; 0x286 <reg_servo_angle>
    16a2:	40 e0       	ldi	r20, 0x00	; 0
    16a4:	50 e0       	ldi	r21, 0x00	; 0
    16a6:	66 e8       	ldi	r22, 0x86	; 134
    16a8:	72 e4       	ldi	r23, 0x42	; 66
    16aa:	8b e0       	ldi	r24, 0x0B	; 11
    16ac:	0e 94 43 01 	call	0x286	; 0x286 <reg_servo_angle>
    16b0:	40 e0       	ldi	r20, 0x00	; 0
    16b2:	50 e0       	ldi	r21, 0x00	; 0
    16b4:	67 e0       	ldi	r22, 0x07	; 7
    16b6:	73 e4       	ldi	r23, 0x43	; 67
    16b8:	83 e0       	ldi	r24, 0x03	; 3
    16ba:	0e 94 43 01 	call	0x286	; 0x286 <reg_servo_angle>
    16be:	40 e0       	ldi	r20, 0x00	; 0
    16c0:	50 e0       	ldi	r21, 0x00	; 0
    16c2:	60 ea       	ldi	r22, 0xA0	; 160
    16c4:	72 e4       	ldi	r23, 0x42	; 66
    16c6:	84 e0       	ldi	r24, 0x04	; 4
    16c8:	0e 94 43 01 	call	0x286	; 0x286 <reg_servo_angle>
    16cc:	40 e0       	ldi	r20, 0x00	; 0
    16ce:	50 e0       	ldi	r21, 0x00	; 0
    16d0:	64 e6       	ldi	r22, 0x64	; 100
    16d2:	73 e4       	ldi	r23, 0x43	; 67
    16d4:	85 e0       	ldi	r24, 0x05	; 5
    16d6:	0e 94 43 01 	call	0x286	; 0x286 <reg_servo_angle>
    16da:	40 e0       	ldi	r20, 0x00	; 0
    16dc:	50 e0       	ldi	r21, 0x00	; 0
    16de:	65 e2       	ldi	r22, 0x25	; 37
    16e0:	73 e4       	ldi	r23, 0x43	; 67
    16e2:	8c e0       	ldi	r24, 0x0C	; 12
    16e4:	0e 94 43 01 	call	0x286	; 0x286 <reg_servo_angle>
    16e8:	40 e0       	ldi	r20, 0x00	; 0
    16ea:	50 e0       	ldi	r21, 0x00	; 0
    16ec:	6b e4       	ldi	r22, 0x4B	; 75
    16ee:	73 e4       	ldi	r23, 0x43	; 67
    16f0:	8d e0       	ldi	r24, 0x0D	; 13
    16f2:	0e 94 43 01 	call	0x286	; 0x286 <reg_servo_angle>
    16f6:	40 e0       	ldi	r20, 0x00	; 0
    16f8:	50 e0       	ldi	r21, 0x00	; 0
    16fa:	64 ea       	ldi	r22, 0xA4	; 164
    16fc:	72 e4       	ldi	r23, 0x42	; 66
    16fe:	8e e0       	ldi	r24, 0x0E	; 14
    1700:	0e 94 43 01 	call	0x286	; 0x286 <reg_servo_angle>
    1704:	40 e0       	ldi	r20, 0x00	; 0
    1706:	50 e0       	ldi	r21, 0x00	; 0
    1708:	66 e1       	ldi	r22, 0x16	; 22
    170a:	73 e4       	ldi	r23, 0x43	; 67
    170c:	80 e0       	ldi	r24, 0x00	; 0
    170e:	0e 94 43 01 	call	0x286	; 0x286 <reg_servo_angle>
    1712:	40 e0       	ldi	r20, 0x00	; 0
    1714:	50 e0       	ldi	r21, 0x00	; 0
    1716:	6e eb       	ldi	r22, 0xBE	; 190
    1718:	72 e4       	ldi	r23, 0x42	; 66
    171a:	81 e0       	ldi	r24, 0x01	; 1
    171c:	0e 94 43 01 	call	0x286	; 0x286 <reg_servo_angle>
    1720:	40 e0       	ldi	r20, 0x00	; 0
    1722:	50 e0       	ldi	r21, 0x00	; 0
    1724:	6d e5       	ldi	r22, 0x5D	; 93
    1726:	73 e4       	ldi	r23, 0x43	; 67
    1728:	82 e0       	ldi	r24, 0x02	; 2
    172a:	0e 94 43 01 	call	0x286	; 0x286 <reg_servo_angle>
    172e:	40 e0       	ldi	r20, 0x00	; 0
    1730:	50 e0       	ldi	r21, 0x00	; 0
    1732:	66 e1       	ldi	r22, 0x16	; 22
    1734:	73 e4       	ldi	r23, 0x43	; 67
    1736:	8f e0       	ldi	r24, 0x0F	; 15
    1738:	0e 94 43 01 	call	0x286	; 0x286 <reg_servo_angle>
    173c:	40 e0       	ldi	r20, 0x00	; 0
    173e:	50 e0       	ldi	r21, 0x00	; 0
    1740:	6e e5       	ldi	r22, 0x5E	; 94
    1742:	73 e4       	ldi	r23, 0x43	; 67
    1744:	80 e1       	ldi	r24, 0x10	; 16
    1746:	0e 94 43 01 	call	0x286	; 0x286 <reg_servo_angle>
    174a:	40 e0       	ldi	r20, 0x00	; 0
    174c:	50 e0       	ldi	r21, 0x00	; 0
    174e:	6a e8       	ldi	r22, 0x8A	; 138
    1750:	72 e4       	ldi	r23, 0x42	; 66
    1752:	81 e1       	ldi	r24, 0x11	; 17
    1754:	0e 94 43 01 	call	0x286	; 0x286 <reg_servo_angle>
    1758:	2f ef       	ldi	r18, 0xFF	; 255
    175a:	87 ee       	ldi	r24, 0xE7	; 231
    175c:	93 e0       	ldi	r25, 0x03	; 3
    175e:	21 50       	subi	r18, 0x01	; 1
    1760:	80 40       	sbci	r24, 0x00	; 0
    1762:	90 40       	sbci	r25, 0x00	; 0
    1764:	e1 f7       	brne	.-8      	; 0x175e <three_rot_left60+0x102>
    1766:	00 c0       	rjmp	.+0      	; 0x1768 <three_rot_left60+0x10c>
    1768:	00 00       	nop
    176a:	0c 94 b3 01 	jmp	0x366	; 0x366 <action>
    176e:	08 95       	ret

00001770 <four_rot_left60>:
    1770:	40 e0       	ldi	r20, 0x00	; 0
    1772:	50 e0       	ldi	r21, 0x00	; 0
    1774:	64 e3       	ldi	r22, 0x34	; 52
    1776:	73 e4       	ldi	r23, 0x43	; 67
    1778:	86 e0       	ldi	r24, 0x06	; 6
    177a:	0e 94 43 01 	call	0x286	; 0x286 <reg_servo_angle>
    177e:	40 e0       	ldi	r20, 0x00	; 0
    1780:	50 e0       	ldi	r21, 0x00	; 0
    1782:	6c eb       	ldi	r22, 0xBC	; 188
    1784:	72 e4       	ldi	r23, 0x42	; 66
    1786:	87 e0       	ldi	r24, 0x07	; 7
    1788:	0e 94 43 01 	call	0x286	; 0x286 <reg_servo_angle>
    178c:	40 e0       	ldi	r20, 0x00	; 0
    178e:	50 e0       	ldi	r21, 0x00	; 0
    1790:	6f e5       	ldi	r22, 0x5F	; 95
    1792:	73 e4       	ldi	r23, 0x43	; 67
    1794:	88 e0       	ldi	r24, 0x08	; 8
    1796:	0e 94 43 01 	call	0x286	; 0x286 <reg_servo_angle>
    179a:	40 e0       	ldi	r20, 0x00	; 0
    179c:	50 e0       	ldi	r21, 0x00	; 0
    179e:	60 ef       	ldi	r22, 0xF0	; 240
    17a0:	72 e4       	ldi	r23, 0x42	; 66
    17a2:	89 e0       	ldi	r24, 0x09	; 9
    17a4:	0e 94 43 01 	call	0x286	; 0x286 <reg_servo_angle>
    17a8:	40 e0       	ldi	r20, 0x00	; 0
    17aa:	50 e0       	ldi	r21, 0x00	; 0
    17ac:	6e e4       	ldi	r22, 0x4E	; 78
    17ae:	73 e4       	ldi	r23, 0x43	; 67
    17b0:	8a e0       	ldi	r24, 0x0A	; 10
    17b2:	0e 94 43 01 	call	0x286	; 0x286 <reg_servo_angle>
    17b6:	40 e0       	ldi	r20, 0x00	; 0
    17b8:	50 e0       	ldi	r21, 0x00	; 0
    17ba:	6a e9       	ldi	r22, 0x9A	; 154
    17bc:	72 e4       	ldi	r23, 0x42	; 66
    17be:	8b e0       	ldi	r24, 0x0B	; 11
    17c0:	0e 94 43 01 	call	0x286	; 0x286 <reg_servo_angle>
    17c4:	40 e0       	ldi	r20, 0x00	; 0
    17c6:	50 e0       	ldi	r21, 0x00	; 0
    17c8:	67 e0       	ldi	r22, 0x07	; 7
    17ca:	73 e4       	ldi	r23, 0x43	; 67
    17cc:	83 e0       	ldi	r24, 0x03	; 3
    17ce:	0e 94 43 01 	call	0x286	; 0x286 <reg_servo_angle>
    17d2:	40 e0       	ldi	r20, 0x00	; 0
    17d4:	50 e0       	ldi	r21, 0x00	; 0
    17d6:	62 ec       	ldi	r22, 0xC2	; 194
    17d8:	72 e4       	ldi	r23, 0x42	; 66
    17da:	84 e0       	ldi	r24, 0x04	; 4
    17dc:	0e 94 43 01 	call	0x286	; 0x286 <reg_servo_angle>
    17e0:	40 e0       	ldi	r20, 0x00	; 0
    17e2:	50 e0       	ldi	r21, 0x00	; 0
    17e4:	6a e5       	ldi	r22, 0x5A	; 90
    17e6:	73 e4       	ldi	r23, 0x43	; 67
    17e8:	85 e0       	ldi	r24, 0x05	; 5
    17ea:	0e 94 43 01 	call	0x286	; 0x286 <reg_servo_angle>
    17ee:	40 e0       	ldi	r20, 0x00	; 0
    17f0:	50 e0       	ldi	r21, 0x00	; 0
    17f2:	65 e2       	ldi	r22, 0x25	; 37
    17f4:	73 e4       	ldi	r23, 0x43	; 67
    17f6:	8c e0       	ldi	r24, 0x0C	; 12
    17f8:	0e 94 43 01 	call	0x286	; 0x286 <reg_servo_angle>
    17fc:	40 e0       	ldi	r20, 0x00	; 0
    17fe:	50 e0       	ldi	r21, 0x00	; 0
    1800:	6b e4       	ldi	r22, 0x4B	; 75
    1802:	73 e4       	ldi	r23, 0x43	; 67
    1804:	8d e0       	ldi	r24, 0x0D	; 13
    1806:	0e 94 43 01 	call	0x286	; 0x286 <reg_servo_angle>
    180a:	40 e0       	ldi	r20, 0x00	; 0
    180c:	50 e0       	ldi	r21, 0x00	; 0
    180e:	64 ea       	ldi	r22, 0xA4	; 164
    1810:	72 e4       	ldi	r23, 0x42	; 66
    1812:	8e e0       	ldi	r24, 0x0E	; 14
    1814:	0e 94 43 01 	call	0x286	; 0x286 <reg_servo_angle>
    1818:	40 e0       	ldi	r20, 0x00	; 0
    181a:	50 e0       	ldi	r21, 0x00	; 0
    181c:	66 e1       	ldi	r22, 0x16	; 22
    181e:	73 e4       	ldi	r23, 0x43	; 67
    1820:	80 e0       	ldi	r24, 0x00	; 0
    1822:	0e 94 43 01 	call	0x286	; 0x286 <reg_servo_angle>
    1826:	40 e0       	ldi	r20, 0x00	; 0
    1828:	50 e0       	ldi	r21, 0x00	; 0
    182a:	6e eb       	ldi	r22, 0xBE	; 190
    182c:	72 e4       	ldi	r23, 0x42	; 66
    182e:	81 e0       	ldi	r24, 0x01	; 1
    1830:	0e 94 43 01 	call	0x286	; 0x286 <reg_servo_angle>
    1834:	40 e0       	ldi	r20, 0x00	; 0
    1836:	50 e0       	ldi	r21, 0x00	; 0
    1838:	6d e5       	ldi	r22, 0x5D	; 93
    183a:	73 e4       	ldi	r23, 0x43	; 67
    183c:	82 e0       	ldi	r24, 0x02	; 2
    183e:	0e 94 43 01 	call	0x286	; 0x286 <reg_servo_angle>
    1842:	40 e0       	ldi	r20, 0x00	; 0
    1844:	50 e0       	ldi	r21, 0x00	; 0
    1846:	66 e1       	ldi	r22, 0x16	; 22
    1848:	73 e4       	ldi	r23, 0x43	; 67
    184a:	8f e0       	ldi	r24, 0x0F	; 15
    184c:	0e 94 43 01 	call	0x286	; 0x286 <reg_servo_angle>
    1850:	40 e0       	ldi	r20, 0x00	; 0
    1852:	50 e0       	ldi	r21, 0x00	; 0
    1854:	6d e4       	ldi	r22, 0x4D	; 77
    1856:	73 e4       	ldi	r23, 0x43	; 67
    1858:	80 e1       	ldi	r24, 0x10	; 16
    185a:	0e 94 43 01 	call	0x286	; 0x286 <reg_servo_angle>
    185e:	40 e0       	ldi	r20, 0x00	; 0
    1860:	50 e0       	ldi	r21, 0x00	; 0
    1862:	6e e9       	ldi	r22, 0x9E	; 158
    1864:	72 e4       	ldi	r23, 0x42	; 66
    1866:	81 e1       	ldi	r24, 0x11	; 17
    1868:	0e 94 43 01 	call	0x286	; 0x286 <reg_servo_angle>
    186c:	2f ef       	ldi	r18, 0xFF	; 255
    186e:	87 ee       	ldi	r24, 0xE7	; 231
    1870:	93 e0       	ldi	r25, 0x03	; 3
    1872:	21 50       	subi	r18, 0x01	; 1
    1874:	80 40       	sbci	r24, 0x00	; 0
    1876:	90 40       	sbci	r25, 0x00	; 0
    1878:	e1 f7       	brne	.-8      	; 0x1872 <four_rot_left60+0x102>
    187a:	00 c0       	rjmp	.+0      	; 0x187c <four_rot_left60+0x10c>
    187c:	00 00       	nop
    187e:	0c 94 b3 01 	jmp	0x366	; 0x366 <action>
    1882:	08 95       	ret

00001884 <five_rot_left60>:
    1884:	40 e0       	ldi	r20, 0x00	; 0
    1886:	50 e0       	ldi	r21, 0x00	; 0
    1888:	64 e3       	ldi	r22, 0x34	; 52
    188a:	73 e4       	ldi	r23, 0x43	; 67
    188c:	86 e0       	ldi	r24, 0x06	; 6
    188e:	0e 94 43 01 	call	0x286	; 0x286 <reg_servo_angle>
    1892:	40 e0       	ldi	r20, 0x00	; 0
    1894:	50 e0       	ldi	r21, 0x00	; 0
    1896:	6a e9       	ldi	r22, 0x9A	; 154
    1898:	72 e4       	ldi	r23, 0x42	; 66
    189a:	87 e0       	ldi	r24, 0x07	; 7
    189c:	0e 94 43 01 	call	0x286	; 0x286 <reg_servo_angle>
    18a0:	40 e0       	ldi	r20, 0x00	; 0
    18a2:	50 e0       	ldi	r21, 0x00	; 0
    18a4:	69 e6       	ldi	r22, 0x69	; 105
    18a6:	73 e4       	ldi	r23, 0x43	; 67
    18a8:	88 e0       	ldi	r24, 0x08	; 8
    18aa:	0e 94 43 01 	call	0x286	; 0x286 <reg_servo_angle>
    18ae:	40 e0       	ldi	r20, 0x00	; 0
    18b0:	50 e0       	ldi	r21, 0x00	; 0
    18b2:	60 ef       	ldi	r22, 0xF0	; 240
    18b4:	72 e4       	ldi	r23, 0x42	; 66
    18b6:	89 e0       	ldi	r24, 0x09	; 9
    18b8:	0e 94 43 01 	call	0x286	; 0x286 <reg_servo_angle>
    18bc:	40 e0       	ldi	r20, 0x00	; 0
    18be:	50 e0       	ldi	r21, 0x00	; 0
    18c0:	6e e4       	ldi	r22, 0x4E	; 78
    18c2:	73 e4       	ldi	r23, 0x43	; 67
    18c4:	8a e0       	ldi	r24, 0x0A	; 10
    18c6:	0e 94 43 01 	call	0x286	; 0x286 <reg_servo_angle>
    18ca:	40 e0       	ldi	r20, 0x00	; 0
    18cc:	50 e0       	ldi	r21, 0x00	; 0
    18ce:	6a e9       	ldi	r22, 0x9A	; 154
    18d0:	72 e4       	ldi	r23, 0x42	; 66
    18d2:	8b e0       	ldi	r24, 0x0B	; 11
    18d4:	0e 94 43 01 	call	0x286	; 0x286 <reg_servo_angle>
    18d8:	40 e0       	ldi	r20, 0x00	; 0
    18da:	50 e0       	ldi	r21, 0x00	; 0
    18dc:	67 e0       	ldi	r22, 0x07	; 7
    18de:	73 e4       	ldi	r23, 0x43	; 67
    18e0:	83 e0       	ldi	r24, 0x03	; 3
    18e2:	0e 94 43 01 	call	0x286	; 0x286 <reg_servo_angle>
    18e6:	40 e0       	ldi	r20, 0x00	; 0
    18e8:	50 e0       	ldi	r21, 0x00	; 0
    18ea:	62 ec       	ldi	r22, 0xC2	; 194
    18ec:	72 e4       	ldi	r23, 0x42	; 66
    18ee:	84 e0       	ldi	r24, 0x04	; 4
    18f0:	0e 94 43 01 	call	0x286	; 0x286 <reg_servo_angle>
    18f4:	40 e0       	ldi	r20, 0x00	; 0
    18f6:	50 e0       	ldi	r21, 0x00	; 0
    18f8:	6a e5       	ldi	r22, 0x5A	; 90
    18fa:	73 e4       	ldi	r23, 0x43	; 67
    18fc:	85 e0       	ldi	r24, 0x05	; 5
    18fe:	0e 94 43 01 	call	0x286	; 0x286 <reg_servo_angle>
    1902:	40 e0       	ldi	r20, 0x00	; 0
    1904:	50 e0       	ldi	r21, 0x00	; 0
    1906:	65 e2       	ldi	r22, 0x25	; 37
    1908:	73 e4       	ldi	r23, 0x43	; 67
    190a:	8c e0       	ldi	r24, 0x0C	; 12
    190c:	0e 94 43 01 	call	0x286	; 0x286 <reg_servo_angle>
    1910:	40 e0       	ldi	r20, 0x00	; 0
    1912:	50 e0       	ldi	r21, 0x00	; 0
    1914:	6c e5       	ldi	r22, 0x5C	; 92
    1916:	73 e4       	ldi	r23, 0x43	; 67
    1918:	8d e0       	ldi	r24, 0x0D	; 13
    191a:	0e 94 43 01 	call	0x286	; 0x286 <reg_servo_angle>
    191e:	40 e0       	ldi	r20, 0x00	; 0
    1920:	50 e0       	ldi	r21, 0x00	; 0
    1922:	60 e9       	ldi	r22, 0x90	; 144
    1924:	72 e4       	ldi	r23, 0x42	; 66
    1926:	8e e0       	ldi	r24, 0x0E	; 14
    1928:	0e 94 43 01 	call	0x286	; 0x286 <reg_servo_angle>
    192c:	40 e0       	ldi	r20, 0x00	; 0
    192e:	50 e0       	ldi	r21, 0x00	; 0
    1930:	66 e1       	ldi	r22, 0x16	; 22
    1932:	73 e4       	ldi	r23, 0x43	; 67
    1934:	80 e0       	ldi	r24, 0x00	; 0
    1936:	0e 94 43 01 	call	0x286	; 0x286 <reg_servo_angle>
    193a:	40 e0       	ldi	r20, 0x00	; 0
    193c:	50 e0       	ldi	r21, 0x00	; 0
    193e:	6c e9       	ldi	r22, 0x9C	; 156
    1940:	72 e4       	ldi	r23, 0x42	; 66
    1942:	81 e0       	ldi	r24, 0x01	; 1
    1944:	0e 94 43 01 	call	0x286	; 0x286 <reg_servo_angle>
    1948:	40 e0       	ldi	r20, 0x00	; 0
    194a:	50 e0       	ldi	r21, 0x00	; 0
    194c:	67 e6       	ldi	r22, 0x67	; 103
    194e:	73 e4       	ldi	r23, 0x43	; 67
    1950:	82 e0       	ldi	r24, 0x02	; 2
    1952:	0e 94 43 01 	call	0x286	; 0x286 <reg_servo_angle>
    1956:	40 e0       	ldi	r20, 0x00	; 0
    1958:	50 e0       	ldi	r21, 0x00	; 0
    195a:	66 e1       	ldi	r22, 0x16	; 22
    195c:	73 e4       	ldi	r23, 0x43	; 67
    195e:	8f e0       	ldi	r24, 0x0F	; 15
    1960:	0e 94 43 01 	call	0x286	; 0x286 <reg_servo_angle>
    1964:	40 e0       	ldi	r20, 0x00	; 0
    1966:	50 e0       	ldi	r21, 0x00	; 0
    1968:	6d e4       	ldi	r22, 0x4D	; 77
    196a:	73 e4       	ldi	r23, 0x43	; 67
    196c:	80 e1       	ldi	r24, 0x10	; 16
    196e:	0e 94 43 01 	call	0x286	; 0x286 <reg_servo_angle>
    1972:	40 e0       	ldi	r20, 0x00	; 0
    1974:	50 e0       	ldi	r21, 0x00	; 0
    1976:	6e e9       	ldi	r22, 0x9E	; 158
    1978:	72 e4       	ldi	r23, 0x42	; 66
    197a:	81 e1       	ldi	r24, 0x11	; 17
    197c:	0e 94 43 01 	call	0x286	; 0x286 <reg_servo_angle>
    1980:	2f ef       	ldi	r18, 0xFF	; 255
    1982:	87 ee       	ldi	r24, 0xE7	; 231
    1984:	93 e0       	ldi	r25, 0x03	; 3
    1986:	21 50       	subi	r18, 0x01	; 1
    1988:	80 40       	sbci	r24, 0x00	; 0
    198a:	90 40       	sbci	r25, 0x00	; 0
    198c:	e1 f7       	brne	.-8      	; 0x1986 <five_rot_left60+0x102>
    198e:	00 c0       	rjmp	.+0      	; 0x1990 <five_rot_left60+0x10c>
    1990:	00 00       	nop
    1992:	0c 94 b3 01 	jmp	0x366	; 0x366 <action>
    1996:	08 95       	ret

00001998 <six_rot_left60>:
    1998:	40 e0       	ldi	r20, 0x00	; 0
    199a:	50 e0       	ldi	r21, 0x00	; 0
    199c:	65 e2       	ldi	r22, 0x25	; 37
    199e:	73 e4       	ldi	r23, 0x43	; 67
    19a0:	86 e0       	ldi	r24, 0x06	; 6
    19a2:	0e 94 43 01 	call	0x286	; 0x286 <reg_servo_angle>
    19a6:	40 e0       	ldi	r20, 0x00	; 0
    19a8:	50 e0       	ldi	r21, 0x00	; 0
    19aa:	68 e9       	ldi	r22, 0x98	; 152
    19ac:	72 e4       	ldi	r23, 0x42	; 66
    19ae:	87 e0       	ldi	r24, 0x07	; 7
    19b0:	0e 94 43 01 	call	0x286	; 0x286 <reg_servo_angle>
    19b4:	40 e0       	ldi	r20, 0x00	; 0
    19b6:	50 e0       	ldi	r21, 0x00	; 0
    19b8:	6a e6       	ldi	r22, 0x6A	; 106
    19ba:	73 e4       	ldi	r23, 0x43	; 67
    19bc:	88 e0       	ldi	r24, 0x08	; 8
    19be:	0e 94 43 01 	call	0x286	; 0x286 <reg_servo_angle>
    19c2:	40 e0       	ldi	r20, 0x00	; 0
    19c4:	50 e0       	ldi	r21, 0x00	; 0
    19c6:	67 e0       	ldi	r22, 0x07	; 7
    19c8:	73 e4       	ldi	r23, 0x43	; 67
    19ca:	89 e0       	ldi	r24, 0x09	; 9
    19cc:	0e 94 43 01 	call	0x286	; 0x286 <reg_servo_angle>
    19d0:	40 e0       	ldi	r20, 0x00	; 0
    19d2:	50 e0       	ldi	r21, 0x00	; 0
    19d4:	6e e4       	ldi	r22, 0x4E	; 78
    19d6:	73 e4       	ldi	r23, 0x43	; 67
    19d8:	8a e0       	ldi	r24, 0x0A	; 10
    19da:	0e 94 43 01 	call	0x286	; 0x286 <reg_servo_angle>
    19de:	40 e0       	ldi	r20, 0x00	; 0
    19e0:	50 e0       	ldi	r21, 0x00	; 0
    19e2:	68 e9       	ldi	r22, 0x98	; 152
    19e4:	72 e4       	ldi	r23, 0x42	; 66
    19e6:	8b e0       	ldi	r24, 0x0B	; 11
    19e8:	0e 94 43 01 	call	0x286	; 0x286 <reg_servo_angle>
    19ec:	40 e0       	ldi	r20, 0x00	; 0
    19ee:	50 e0       	ldi	r21, 0x00	; 0
    19f0:	66 e1       	ldi	r22, 0x16	; 22
    19f2:	73 e4       	ldi	r23, 0x43	; 67
    19f4:	83 e0       	ldi	r24, 0x03	; 3
    19f6:	0e 94 43 01 	call	0x286	; 0x286 <reg_servo_angle>
    19fa:	40 e0       	ldi	r20, 0x00	; 0
    19fc:	50 e0       	ldi	r21, 0x00	; 0
    19fe:	60 ec       	ldi	r22, 0xC0	; 192
    1a00:	72 e4       	ldi	r23, 0x42	; 66
    1a02:	84 e0       	ldi	r24, 0x04	; 4
    1a04:	0e 94 43 01 	call	0x286	; 0x286 <reg_servo_angle>
    1a08:	40 e0       	ldi	r20, 0x00	; 0
    1a0a:	50 e0       	ldi	r21, 0x00	; 0
    1a0c:	6c e5       	ldi	r22, 0x5C	; 92
    1a0e:	73 e4       	ldi	r23, 0x43	; 67
    1a10:	85 e0       	ldi	r24, 0x05	; 5
    1a12:	0e 94 43 01 	call	0x286	; 0x286 <reg_servo_angle>
    1a16:	40 e0       	ldi	r20, 0x00	; 0
    1a18:	50 e0       	ldi	r21, 0x00	; 0
    1a1a:	66 e1       	ldi	r22, 0x16	; 22
    1a1c:	73 e4       	ldi	r23, 0x43	; 67
    1a1e:	8c e0       	ldi	r24, 0x0C	; 12
    1a20:	0e 94 43 01 	call	0x286	; 0x286 <reg_servo_angle>
    1a24:	40 e0       	ldi	r20, 0x00	; 0
    1a26:	50 e0       	ldi	r21, 0x00	; 0
    1a28:	6d e5       	ldi	r22, 0x5D	; 93
    1a2a:	73 e4       	ldi	r23, 0x43	; 67
    1a2c:	8d e0       	ldi	r24, 0x0D	; 13
    1a2e:	0e 94 43 01 	call	0x286	; 0x286 <reg_servo_angle>
    1a32:	40 e0       	ldi	r20, 0x00	; 0
    1a34:	50 e0       	ldi	r21, 0x00	; 0
    1a36:	6e e8       	ldi	r22, 0x8E	; 142
    1a38:	72 e4       	ldi	r23, 0x42	; 66
    1a3a:	8e e0       	ldi	r24, 0x0E	; 14
    1a3c:	0e 94 43 01 	call	0x286	; 0x286 <reg_servo_angle>
    1a40:	40 e0       	ldi	r20, 0x00	; 0
    1a42:	50 e0       	ldi	r21, 0x00	; 0
    1a44:	67 e0       	ldi	r22, 0x07	; 7
    1a46:	73 e4       	ldi	r23, 0x43	; 67
    1a48:	80 e0       	ldi	r24, 0x00	; 0
    1a4a:	0e 94 43 01 	call	0x286	; 0x286 <reg_servo_angle>
    1a4e:	40 e0       	ldi	r20, 0x00	; 0
    1a50:	50 e0       	ldi	r21, 0x00	; 0
    1a52:	68 e9       	ldi	r22, 0x98	; 152
    1a54:	72 e4       	ldi	r23, 0x42	; 66
    1a56:	81 e0       	ldi	r24, 0x01	; 1
    1a58:	0e 94 43 01 	call	0x286	; 0x286 <reg_servo_angle>
    1a5c:	40 e0       	ldi	r20, 0x00	; 0
    1a5e:	50 e0       	ldi	r21, 0x00	; 0
    1a60:	6a e6       	ldi	r22, 0x6A	; 106
    1a62:	73 e4       	ldi	r23, 0x43	; 67
    1a64:	82 e0       	ldi	r24, 0x02	; 2
    1a66:	0e 94 43 01 	call	0x286	; 0x286 <reg_servo_angle>
    1a6a:	40 e0       	ldi	r20, 0x00	; 0
    1a6c:	50 e0       	ldi	r21, 0x00	; 0
    1a6e:	65 e2       	ldi	r22, 0x25	; 37
    1a70:	73 e4       	ldi	r23, 0x43	; 67
    1a72:	8f e0       	ldi	r24, 0x0F	; 15
    1a74:	0e 94 43 01 	call	0x286	; 0x286 <reg_servo_angle>
    1a78:	40 e0       	ldi	r20, 0x00	; 0
    1a7a:	50 e0       	ldi	r21, 0x00	; 0
    1a7c:	6e e4       	ldi	r22, 0x4E	; 78
    1a7e:	73 e4       	ldi	r23, 0x43	; 67
    1a80:	80 e1       	ldi	r24, 0x10	; 16
    1a82:	0e 94 43 01 	call	0x286	; 0x286 <reg_servo_angle>
    1a86:	40 e0       	ldi	r20, 0x00	; 0
    1a88:	50 e0       	ldi	r21, 0x00	; 0
    1a8a:	68 e9       	ldi	r22, 0x98	; 152
    1a8c:	72 e4       	ldi	r23, 0x42	; 66
    1a8e:	81 e1       	ldi	r24, 0x11	; 17
    1a90:	0e 94 43 01 	call	0x286	; 0x286 <reg_servo_angle>
    1a94:	2f ef       	ldi	r18, 0xFF	; 255
    1a96:	87 ee       	ldi	r24, 0xE7	; 231
    1a98:	93 e0       	ldi	r25, 0x03	; 3
    1a9a:	21 50       	subi	r18, 0x01	; 1
    1a9c:	80 40       	sbci	r24, 0x00	; 0
    1a9e:	90 40       	sbci	r25, 0x00	; 0
    1aa0:	e1 f7       	brne	.-8      	; 0x1a9a <six_rot_left60+0x102>
    1aa2:	00 c0       	rjmp	.+0      	; 0x1aa4 <six_rot_left60+0x10c>
    1aa4:	00 00       	nop
    1aa6:	0c 94 b3 01 	jmp	0x366	; 0x366 <action>
    1aaa:	08 95       	ret

00001aac <seven_rot_left60>:
    1aac:	40 e0       	ldi	r20, 0x00	; 0
    1aae:	50 e0       	ldi	r21, 0x00	; 0
    1ab0:	66 e1       	ldi	r22, 0x16	; 22
    1ab2:	73 e4       	ldi	r23, 0x43	; 67
    1ab4:	86 e0       	ldi	r24, 0x06	; 6
    1ab6:	0e 94 43 01 	call	0x286	; 0x286 <reg_servo_angle>
    1aba:	40 e0       	ldi	r20, 0x00	; 0
    1abc:	50 e0       	ldi	r21, 0x00	; 0
    1abe:	6c e9       	ldi	r22, 0x9C	; 156
    1ac0:	72 e4       	ldi	r23, 0x42	; 66
    1ac2:	87 e0       	ldi	r24, 0x07	; 7
    1ac4:	0e 94 43 01 	call	0x286	; 0x286 <reg_servo_angle>
    1ac8:	40 e0       	ldi	r20, 0x00	; 0
    1aca:	50 e0       	ldi	r21, 0x00	; 0
    1acc:	67 e6       	ldi	r22, 0x67	; 103
    1ace:	73 e4       	ldi	r23, 0x43	; 67
    1ad0:	88 e0       	ldi	r24, 0x08	; 8
    1ad2:	0e 94 43 01 	call	0x286	; 0x286 <reg_servo_angle>
    1ad6:	40 e0       	ldi	r20, 0x00	; 0
    1ad8:	50 e0       	ldi	r21, 0x00	; 0
    1ada:	66 e1       	ldi	r22, 0x16	; 22
    1adc:	73 e4       	ldi	r23, 0x43	; 67
    1ade:	89 e0       	ldi	r24, 0x09	; 9
    1ae0:	0e 94 43 01 	call	0x286	; 0x286 <reg_servo_angle>
    1ae4:	40 e0       	ldi	r20, 0x00	; 0
    1ae6:	50 e0       	ldi	r21, 0x00	; 0
    1ae8:	6d e4       	ldi	r22, 0x4D	; 77
    1aea:	73 e4       	ldi	r23, 0x43	; 67
    1aec:	8a e0       	ldi	r24, 0x0A	; 10
    1aee:	0e 94 43 01 	call	0x286	; 0x286 <reg_servo_angle>
    1af2:	40 e0       	ldi	r20, 0x00	; 0
    1af4:	50 e0       	ldi	r21, 0x00	; 0
    1af6:	6e e9       	ldi	r22, 0x9E	; 158
    1af8:	72 e4       	ldi	r23, 0x42	; 66
    1afa:	8b e0       	ldi	r24, 0x0B	; 11
    1afc:	0e 94 43 01 	call	0x286	; 0x286 <reg_servo_angle>
    1b00:	40 e0       	ldi	r20, 0x00	; 0
    1b02:	50 e0       	ldi	r21, 0x00	; 0
    1b04:	65 e2       	ldi	r22, 0x25	; 37
    1b06:	73 e4       	ldi	r23, 0x43	; 67
    1b08:	83 e0       	ldi	r24, 0x03	; 3
    1b0a:	0e 94 43 01 	call	0x286	; 0x286 <reg_servo_angle>
    1b0e:	40 e0       	ldi	r20, 0x00	; 0
    1b10:	50 e0       	ldi	r21, 0x00	; 0
    1b12:	62 ec       	ldi	r22, 0xC2	; 194
    1b14:	72 e4       	ldi	r23, 0x42	; 66
    1b16:	84 e0       	ldi	r24, 0x04	; 4
    1b18:	0e 94 43 01 	call	0x286	; 0x286 <reg_servo_angle>
    1b1c:	40 e0       	ldi	r20, 0x00	; 0
    1b1e:	50 e0       	ldi	r21, 0x00	; 0
    1b20:	6a e5       	ldi	r22, 0x5A	; 90
    1b22:	73 e4       	ldi	r23, 0x43	; 67
    1b24:	85 e0       	ldi	r24, 0x05	; 5
    1b26:	0e 94 43 01 	call	0x286	; 0x286 <reg_servo_angle>
    1b2a:	40 e0       	ldi	r20, 0x00	; 0
    1b2c:	50 e0       	ldi	r21, 0x00	; 0
    1b2e:	67 e0       	ldi	r22, 0x07	; 7
    1b30:	73 e4       	ldi	r23, 0x43	; 67
    1b32:	8c e0       	ldi	r24, 0x0C	; 12
    1b34:	0e 94 43 01 	call	0x286	; 0x286 <reg_servo_angle>
    1b38:	40 e0       	ldi	r20, 0x00	; 0
    1b3a:	50 e0       	ldi	r21, 0x00	; 0
    1b3c:	6c e5       	ldi	r22, 0x5C	; 92
    1b3e:	73 e4       	ldi	r23, 0x43	; 67
    1b40:	8d e0       	ldi	r24, 0x0D	; 13
    1b42:	0e 94 43 01 	call	0x286	; 0x286 <reg_servo_angle>
    1b46:	40 e0       	ldi	r20, 0x00	; 0
    1b48:	50 e0       	ldi	r21, 0x00	; 0
    1b4a:	60 e9       	ldi	r22, 0x90	; 144
    1b4c:	72 e4       	ldi	r23, 0x42	; 66
    1b4e:	8e e0       	ldi	r24, 0x0E	; 14
    1b50:	0e 94 43 01 	call	0x286	; 0x286 <reg_servo_angle>
    1b54:	40 e0       	ldi	r20, 0x00	; 0
    1b56:	50 e0       	ldi	r21, 0x00	; 0
    1b58:	60 ef       	ldi	r22, 0xF0	; 240
    1b5a:	72 e4       	ldi	r23, 0x42	; 66
    1b5c:	80 e0       	ldi	r24, 0x00	; 0
    1b5e:	0e 94 43 01 	call	0x286	; 0x286 <reg_servo_angle>
    1b62:	40 e0       	ldi	r20, 0x00	; 0
    1b64:	50 e0       	ldi	r21, 0x00	; 0
    1b66:	6a e9       	ldi	r22, 0x9A	; 154
    1b68:	72 e4       	ldi	r23, 0x42	; 66
    1b6a:	81 e0       	ldi	r24, 0x01	; 1
    1b6c:	0e 94 43 01 	call	0x286	; 0x286 <reg_servo_angle>
    1b70:	40 e0       	ldi	r20, 0x00	; 0
    1b72:	50 e0       	ldi	r21, 0x00	; 0
    1b74:	69 e6       	ldi	r22, 0x69	; 105
    1b76:	73 e4       	ldi	r23, 0x43	; 67
    1b78:	82 e0       	ldi	r24, 0x02	; 2
    1b7a:	0e 94 43 01 	call	0x286	; 0x286 <reg_servo_angle>
    1b7e:	40 e0       	ldi	r20, 0x00	; 0
    1b80:	50 e0       	ldi	r21, 0x00	; 0
    1b82:	64 e3       	ldi	r22, 0x34	; 52
    1b84:	73 e4       	ldi	r23, 0x43	; 67
    1b86:	8f e0       	ldi	r24, 0x0F	; 15
    1b88:	0e 94 43 01 	call	0x286	; 0x286 <reg_servo_angle>
    1b8c:	40 e0       	ldi	r20, 0x00	; 0
    1b8e:	50 e0       	ldi	r21, 0x00	; 0
    1b90:	6e e4       	ldi	r22, 0x4E	; 78
    1b92:	73 e4       	ldi	r23, 0x43	; 67
    1b94:	80 e1       	ldi	r24, 0x10	; 16
    1b96:	0e 94 43 01 	call	0x286	; 0x286 <reg_servo_angle>
    1b9a:	40 e0       	ldi	r20, 0x00	; 0
    1b9c:	50 e0       	ldi	r21, 0x00	; 0
    1b9e:	6a e9       	ldi	r22, 0x9A	; 154
    1ba0:	72 e4       	ldi	r23, 0x42	; 66
    1ba2:	81 e1       	ldi	r24, 0x11	; 17
    1ba4:	0e 94 43 01 	call	0x286	; 0x286 <reg_servo_angle>
    1ba8:	2f ef       	ldi	r18, 0xFF	; 255
    1baa:	87 ee       	ldi	r24, 0xE7	; 231
    1bac:	93 e0       	ldi	r25, 0x03	; 3
    1bae:	21 50       	subi	r18, 0x01	; 1
    1bb0:	80 40       	sbci	r24, 0x00	; 0
    1bb2:	90 40       	sbci	r25, 0x00	; 0
    1bb4:	e1 f7       	brne	.-8      	; 0x1bae <seven_rot_left60+0x102>
    1bb6:	00 c0       	rjmp	.+0      	; 0x1bb8 <seven_rot_left60+0x10c>
    1bb8:	00 00       	nop
    1bba:	0c 94 b3 01 	jmp	0x366	; 0x366 <action>
    1bbe:	08 95       	ret

00001bc0 <eight_rot_left60>:
    1bc0:	40 e0       	ldi	r20, 0x00	; 0
    1bc2:	50 e0       	ldi	r21, 0x00	; 0
    1bc4:	66 e1       	ldi	r22, 0x16	; 22
    1bc6:	73 e4       	ldi	r23, 0x43	; 67
    1bc8:	86 e0       	ldi	r24, 0x06	; 6
    1bca:	0e 94 43 01 	call	0x286	; 0x286 <reg_servo_angle>
    1bce:	40 e0       	ldi	r20, 0x00	; 0
    1bd0:	50 e0       	ldi	r21, 0x00	; 0
    1bd2:	6e eb       	ldi	r22, 0xBE	; 190
    1bd4:	72 e4       	ldi	r23, 0x42	; 66
    1bd6:	87 e0       	ldi	r24, 0x07	; 7
    1bd8:	0e 94 43 01 	call	0x286	; 0x286 <reg_servo_angle>
    1bdc:	40 e0       	ldi	r20, 0x00	; 0
    1bde:	50 e0       	ldi	r21, 0x00	; 0
    1be0:	6d e5       	ldi	r22, 0x5D	; 93
    1be2:	73 e4       	ldi	r23, 0x43	; 67
    1be4:	88 e0       	ldi	r24, 0x08	; 8
    1be6:	0e 94 43 01 	call	0x286	; 0x286 <reg_servo_angle>
    1bea:	40 e0       	ldi	r20, 0x00	; 0
    1bec:	50 e0       	ldi	r21, 0x00	; 0
    1bee:	66 e1       	ldi	r22, 0x16	; 22
    1bf0:	73 e4       	ldi	r23, 0x43	; 67
    1bf2:	89 e0       	ldi	r24, 0x09	; 9
    1bf4:	0e 94 43 01 	call	0x286	; 0x286 <reg_servo_angle>
    1bf8:	40 e0       	ldi	r20, 0x00	; 0
    1bfa:	50 e0       	ldi	r21, 0x00	; 0
    1bfc:	6d e4       	ldi	r22, 0x4D	; 77
    1bfe:	73 e4       	ldi	r23, 0x43	; 67
    1c00:	8a e0       	ldi	r24, 0x0A	; 10
    1c02:	0e 94 43 01 	call	0x286	; 0x286 <reg_servo_angle>
    1c06:	40 e0       	ldi	r20, 0x00	; 0
    1c08:	50 e0       	ldi	r21, 0x00	; 0
    1c0a:	6e e9       	ldi	r22, 0x9E	; 158
    1c0c:	72 e4       	ldi	r23, 0x42	; 66
    1c0e:	8b e0       	ldi	r24, 0x0B	; 11
    1c10:	0e 94 43 01 	call	0x286	; 0x286 <reg_servo_angle>
    1c14:	40 e0       	ldi	r20, 0x00	; 0
    1c16:	50 e0       	ldi	r21, 0x00	; 0
    1c18:	65 e2       	ldi	r22, 0x25	; 37
    1c1a:	73 e4       	ldi	r23, 0x43	; 67
    1c1c:	83 e0       	ldi	r24, 0x03	; 3
    1c1e:	0e 94 43 01 	call	0x286	; 0x286 <reg_servo_angle>
    1c22:	40 e0       	ldi	r20, 0x00	; 0
    1c24:	50 e0       	ldi	r21, 0x00	; 0
    1c26:	62 ec       	ldi	r22, 0xC2	; 194
    1c28:	72 e4       	ldi	r23, 0x42	; 66
    1c2a:	84 e0       	ldi	r24, 0x04	; 4
    1c2c:	0e 94 43 01 	call	0x286	; 0x286 <reg_servo_angle>
    1c30:	40 e0       	ldi	r20, 0x00	; 0
    1c32:	50 e0       	ldi	r21, 0x00	; 0
    1c34:	6a e5       	ldi	r22, 0x5A	; 90
    1c36:	73 e4       	ldi	r23, 0x43	; 67
    1c38:	85 e0       	ldi	r24, 0x05	; 5
    1c3a:	0e 94 43 01 	call	0x286	; 0x286 <reg_servo_angle>
    1c3e:	40 e0       	ldi	r20, 0x00	; 0
    1c40:	50 e0       	ldi	r21, 0x00	; 0
    1c42:	67 e0       	ldi	r22, 0x07	; 7
    1c44:	73 e4       	ldi	r23, 0x43	; 67
    1c46:	8c e0       	ldi	r24, 0x0C	; 12
    1c48:	0e 94 43 01 	call	0x286	; 0x286 <reg_servo_angle>
    1c4c:	40 e0       	ldi	r20, 0x00	; 0
    1c4e:	50 e0       	ldi	r21, 0x00	; 0
    1c50:	6b e4       	ldi	r22, 0x4B	; 75
    1c52:	73 e4       	ldi	r23, 0x43	; 67
    1c54:	8d e0       	ldi	r24, 0x0D	; 13
    1c56:	0e 94 43 01 	call	0x286	; 0x286 <reg_servo_angle>
    1c5a:	40 e0       	ldi	r20, 0x00	; 0
    1c5c:	50 e0       	ldi	r21, 0x00	; 0
    1c5e:	64 ea       	ldi	r22, 0xA4	; 164
    1c60:	72 e4       	ldi	r23, 0x42	; 66
    1c62:	8e e0       	ldi	r24, 0x0E	; 14
    1c64:	0e 94 43 01 	call	0x286	; 0x286 <reg_servo_angle>
    1c68:	40 e0       	ldi	r20, 0x00	; 0
    1c6a:	50 e0       	ldi	r21, 0x00	; 0
    1c6c:	60 ef       	ldi	r22, 0xF0	; 240
    1c6e:	72 e4       	ldi	r23, 0x42	; 66
    1c70:	80 e0       	ldi	r24, 0x00	; 0
    1c72:	0e 94 43 01 	call	0x286	; 0x286 <reg_servo_angle>
    1c76:	40 e0       	ldi	r20, 0x00	; 0
    1c78:	50 e0       	ldi	r21, 0x00	; 0
    1c7a:	6c eb       	ldi	r22, 0xBC	; 188
    1c7c:	72 e4       	ldi	r23, 0x42	; 66
    1c7e:	81 e0       	ldi	r24, 0x01	; 1
    1c80:	0e 94 43 01 	call	0x286	; 0x286 <reg_servo_angle>
    1c84:	40 e0       	ldi	r20, 0x00	; 0
    1c86:	50 e0       	ldi	r21, 0x00	; 0
    1c88:	6f e5       	ldi	r22, 0x5F	; 95
    1c8a:	73 e4       	ldi	r23, 0x43	; 67
    1c8c:	82 e0       	ldi	r24, 0x02	; 2
    1c8e:	0e 94 43 01 	call	0x286	; 0x286 <reg_servo_angle>
    1c92:	40 e0       	ldi	r20, 0x00	; 0
    1c94:	50 e0       	ldi	r21, 0x00	; 0
    1c96:	64 e3       	ldi	r22, 0x34	; 52
    1c98:	73 e4       	ldi	r23, 0x43	; 67
    1c9a:	8f e0       	ldi	r24, 0x0F	; 15
    1c9c:	0e 94 43 01 	call	0x286	; 0x286 <reg_servo_angle>
    1ca0:	40 e0       	ldi	r20, 0x00	; 0
    1ca2:	50 e0       	ldi	r21, 0x00	; 0
    1ca4:	6e e4       	ldi	r22, 0x4E	; 78
    1ca6:	73 e4       	ldi	r23, 0x43	; 67
    1ca8:	80 e1       	ldi	r24, 0x10	; 16
    1caa:	0e 94 43 01 	call	0x286	; 0x286 <reg_servo_angle>
    1cae:	40 e0       	ldi	r20, 0x00	; 0
    1cb0:	50 e0       	ldi	r21, 0x00	; 0
    1cb2:	6a e9       	ldi	r22, 0x9A	; 154
    1cb4:	72 e4       	ldi	r23, 0x42	; 66
    1cb6:	81 e1       	ldi	r24, 0x11	; 17
    1cb8:	0e 94 43 01 	call	0x286	; 0x286 <reg_servo_angle>
    1cbc:	2f ef       	ldi	r18, 0xFF	; 255
    1cbe:	87 ee       	ldi	r24, 0xE7	; 231
    1cc0:	93 e0       	ldi	r25, 0x03	; 3
    1cc2:	21 50       	subi	r18, 0x01	; 1
    1cc4:	80 40       	sbci	r24, 0x00	; 0
    1cc6:	90 40       	sbci	r25, 0x00	; 0
    1cc8:	e1 f7       	brne	.-8      	; 0x1cc2 <eight_rot_left60+0x102>
    1cca:	00 c0       	rjmp	.+0      	; 0x1ccc <eight_rot_left60+0x10c>
    1ccc:	00 00       	nop
    1cce:	0c 94 b3 01 	jmp	0x366	; 0x366 <action>
    1cd2:	08 95       	ret

00001cd4 <rotate_rot_left60>:
    1cd4:	75 df       	rcall	.-278    	; 0x1bc0 <eight_rot_left60>
    1cd6:	ae db       	rcall	.-2212   	; 0x1434 <one_rot_left60>
    1cd8:	37 dc       	rcall	.-1938   	; 0x1548 <two_rot_left60>
    1cda:	c0 dc       	rcall	.-1664   	; 0x165c <three_rot_left60>
    1cdc:	49 dd       	rcall	.-1390   	; 0x1770 <four_rot_left60>
    1cde:	48 dd       	rcall	.-1392   	; 0x1770 <four_rot_left60>
    1ce0:	d1 dd       	rcall	.-1118   	; 0x1884 <five_rot_left60>
    1ce2:	5a de       	rcall	.-844    	; 0x1998 <six_rot_left60>
    1ce4:	e3 de       	rcall	.-570    	; 0x1aac <seven_rot_left60>
    1ce6:	6c cf       	rjmp	.-296    	; 0x1bc0 <eight_rot_left60>
    1ce8:	08 95       	ret

00001cea <one_rot_right60>:
    1cea:	40 e0       	ldi	r20, 0x00	; 0
    1cec:	50 e0       	ldi	r21, 0x00	; 0
    1cee:	64 e3       	ldi	r22, 0x34	; 52
    1cf0:	73 e4       	ldi	r23, 0x43	; 67
    1cf2:	86 e0       	ldi	r24, 0x06	; 6
    1cf4:	0e 94 43 01 	call	0x286	; 0x286 <reg_servo_angle>
    1cf8:	40 e0       	ldi	r20, 0x00	; 0
    1cfa:	50 e0       	ldi	r21, 0x00	; 0
    1cfc:	6c eb       	ldi	r22, 0xBC	; 188
    1cfe:	72 e4       	ldi	r23, 0x42	; 66
    1d00:	87 e0       	ldi	r24, 0x07	; 7
    1d02:	0e 94 43 01 	call	0x286	; 0x286 <reg_servo_angle>
    1d06:	40 e0       	ldi	r20, 0x00	; 0
    1d08:	50 e0       	ldi	r21, 0x00	; 0
    1d0a:	6f e5       	ldi	r22, 0x5F	; 95
    1d0c:	73 e4       	ldi	r23, 0x43	; 67
    1d0e:	88 e0       	ldi	r24, 0x08	; 8
    1d10:	0e 94 43 01 	call	0x286	; 0x286 <reg_servo_angle>
    1d14:	40 e0       	ldi	r20, 0x00	; 0
    1d16:	50 e0       	ldi	r21, 0x00	; 0
    1d18:	60 ef       	ldi	r22, 0xF0	; 240
    1d1a:	72 e4       	ldi	r23, 0x42	; 66
    1d1c:	89 e0       	ldi	r24, 0x09	; 9
    1d1e:	0e 94 43 01 	call	0x286	; 0x286 <reg_servo_angle>
    1d22:	40 e0       	ldi	r20, 0x00	; 0
    1d24:	50 e0       	ldi	r21, 0x00	; 0
    1d26:	6f e5       	ldi	r22, 0x5F	; 95
    1d28:	73 e4       	ldi	r23, 0x43	; 67
    1d2a:	8a e0       	ldi	r24, 0x0A	; 10
    1d2c:	0e 94 43 01 	call	0x286	; 0x286 <reg_servo_angle>
    1d30:	40 e0       	ldi	r20, 0x00	; 0
    1d32:	50 e0       	ldi	r21, 0x00	; 0
    1d34:	66 e8       	ldi	r22, 0x86	; 134
    1d36:	72 e4       	ldi	r23, 0x42	; 66
    1d38:	8b e0       	ldi	r24, 0x0B	; 11
    1d3a:	0e 94 43 01 	call	0x286	; 0x286 <reg_servo_angle>
    1d3e:	40 e0       	ldi	r20, 0x00	; 0
    1d40:	50 e0       	ldi	r21, 0x00	; 0
    1d42:	67 e0       	ldi	r22, 0x07	; 7
    1d44:	73 e4       	ldi	r23, 0x43	; 67
    1d46:	83 e0       	ldi	r24, 0x03	; 3
    1d48:	0e 94 43 01 	call	0x286	; 0x286 <reg_servo_angle>
    1d4c:	40 e0       	ldi	r20, 0x00	; 0
    1d4e:	50 e0       	ldi	r21, 0x00	; 0
    1d50:	60 ea       	ldi	r22, 0xA0	; 160
    1d52:	72 e4       	ldi	r23, 0x42	; 66
    1d54:	84 e0       	ldi	r24, 0x04	; 4
    1d56:	0e 94 43 01 	call	0x286	; 0x286 <reg_servo_angle>
    1d5a:	40 e0       	ldi	r20, 0x00	; 0
    1d5c:	50 e0       	ldi	r21, 0x00	; 0
    1d5e:	64 e6       	ldi	r22, 0x64	; 100
    1d60:	73 e4       	ldi	r23, 0x43	; 67
    1d62:	85 e0       	ldi	r24, 0x05	; 5
    1d64:	0e 94 43 01 	call	0x286	; 0x286 <reg_servo_angle>
    1d68:	40 e0       	ldi	r20, 0x00	; 0
    1d6a:	50 e0       	ldi	r21, 0x00	; 0
    1d6c:	65 e2       	ldi	r22, 0x25	; 37
    1d6e:	73 e4       	ldi	r23, 0x43	; 67
    1d70:	8c e0       	ldi	r24, 0x0C	; 12
    1d72:	0e 94 43 01 	call	0x286	; 0x286 <reg_servo_angle>
    1d76:	40 e0       	ldi	r20, 0x00	; 0
    1d78:	50 e0       	ldi	r21, 0x00	; 0
    1d7a:	6b e4       	ldi	r22, 0x4B	; 75
    1d7c:	73 e4       	ldi	r23, 0x43	; 67
    1d7e:	8d e0       	ldi	r24, 0x0D	; 13
    1d80:	0e 94 43 01 	call	0x286	; 0x286 <reg_servo_angle>
    1d84:	40 e0       	ldi	r20, 0x00	; 0
    1d86:	50 e0       	ldi	r21, 0x00	; 0
    1d88:	64 ea       	ldi	r22, 0xA4	; 164
    1d8a:	72 e4       	ldi	r23, 0x42	; 66
    1d8c:	8e e0       	ldi	r24, 0x0E	; 14
    1d8e:	0e 94 43 01 	call	0x286	; 0x286 <reg_servo_angle>
    1d92:	40 e0       	ldi	r20, 0x00	; 0
    1d94:	50 e0       	ldi	r21, 0x00	; 0
    1d96:	66 e1       	ldi	r22, 0x16	; 22
    1d98:	73 e4       	ldi	r23, 0x43	; 67
    1d9a:	80 e0       	ldi	r24, 0x00	; 0
    1d9c:	0e 94 43 01 	call	0x286	; 0x286 <reg_servo_angle>
    1da0:	40 e0       	ldi	r20, 0x00	; 0
    1da2:	50 e0       	ldi	r21, 0x00	; 0
    1da4:	6e eb       	ldi	r22, 0xBE	; 190
    1da6:	72 e4       	ldi	r23, 0x42	; 66
    1da8:	81 e0       	ldi	r24, 0x01	; 1
    1daa:	0e 94 43 01 	call	0x286	; 0x286 <reg_servo_angle>
    1dae:	40 e0       	ldi	r20, 0x00	; 0
    1db0:	50 e0       	ldi	r21, 0x00	; 0
    1db2:	6d e5       	ldi	r22, 0x5D	; 93
    1db4:	73 e4       	ldi	r23, 0x43	; 67
    1db6:	82 e0       	ldi	r24, 0x02	; 2
    1db8:	0e 94 43 01 	call	0x286	; 0x286 <reg_servo_angle>
    1dbc:	40 e0       	ldi	r20, 0x00	; 0
    1dbe:	50 e0       	ldi	r21, 0x00	; 0
    1dc0:	66 e1       	ldi	r22, 0x16	; 22
    1dc2:	73 e4       	ldi	r23, 0x43	; 67
    1dc4:	8f e0       	ldi	r24, 0x0F	; 15
    1dc6:	0e 94 43 01 	call	0x286	; 0x286 <reg_servo_angle>
    1dca:	40 e0       	ldi	r20, 0x00	; 0
    1dcc:	50 e0       	ldi	r21, 0x00	; 0
    1dce:	6e e5       	ldi	r22, 0x5E	; 94
    1dd0:	73 e4       	ldi	r23, 0x43	; 67
    1dd2:	80 e1       	ldi	r24, 0x10	; 16
    1dd4:	0e 94 43 01 	call	0x286	; 0x286 <reg_servo_angle>
    1dd8:	40 e0       	ldi	r20, 0x00	; 0
    1dda:	50 e0       	ldi	r21, 0x00	; 0
    1ddc:	6a e8       	ldi	r22, 0x8A	; 138
    1dde:	72 e4       	ldi	r23, 0x42	; 66
    1de0:	81 e1       	ldi	r24, 0x11	; 17
    1de2:	0e 94 43 01 	call	0x286	; 0x286 <reg_servo_angle>
    1de6:	2f ef       	ldi	r18, 0xFF	; 255
    1de8:	87 ee       	ldi	r24, 0xE7	; 231
    1dea:	93 e0       	ldi	r25, 0x03	; 3
    1dec:	21 50       	subi	r18, 0x01	; 1
    1dee:	80 40       	sbci	r24, 0x00	; 0
    1df0:	90 40       	sbci	r25, 0x00	; 0
    1df2:	e1 f7       	brne	.-8      	; 0x1dec <one_rot_right60+0x102>
    1df4:	00 c0       	rjmp	.+0      	; 0x1df6 <one_rot_right60+0x10c>
    1df6:	00 00       	nop
    1df8:	0c 94 b3 01 	jmp	0x366	; 0x366 <action>
    1dfc:	08 95       	ret

00001dfe <two_rot_right60>:
    1dfe:	40 e0       	ldi	r20, 0x00	; 0
    1e00:	50 e0       	ldi	r21, 0x00	; 0
    1e02:	65 e2       	ldi	r22, 0x25	; 37
    1e04:	73 e4       	ldi	r23, 0x43	; 67
    1e06:	86 e0       	ldi	r24, 0x06	; 6
    1e08:	0e 94 43 01 	call	0x286	; 0x286 <reg_servo_angle>
    1e0c:	40 e0       	ldi	r20, 0x00	; 0
    1e0e:	50 e0       	ldi	r21, 0x00	; 0
    1e10:	6c eb       	ldi	r22, 0xBC	; 188
    1e12:	72 e4       	ldi	r23, 0x42	; 66
    1e14:	87 e0       	ldi	r24, 0x07	; 7
    1e16:	0e 94 43 01 	call	0x286	; 0x286 <reg_servo_angle>
    1e1a:	40 e0       	ldi	r20, 0x00	; 0
    1e1c:	50 e0       	ldi	r21, 0x00	; 0
    1e1e:	60 e6       	ldi	r22, 0x60	; 96
    1e20:	73 e4       	ldi	r23, 0x43	; 67
    1e22:	88 e0       	ldi	r24, 0x08	; 8
    1e24:	0e 94 43 01 	call	0x286	; 0x286 <reg_servo_angle>
    1e28:	40 e0       	ldi	r20, 0x00	; 0
    1e2a:	50 e0       	ldi	r21, 0x00	; 0
    1e2c:	67 e0       	ldi	r22, 0x07	; 7
    1e2e:	73 e4       	ldi	r23, 0x43	; 67
    1e30:	89 e0       	ldi	r24, 0x09	; 9
    1e32:	0e 94 43 01 	call	0x286	; 0x286 <reg_servo_angle>
    1e36:	40 e0       	ldi	r20, 0x00	; 0
    1e38:	50 e0       	ldi	r21, 0x00	; 0
    1e3a:	60 e6       	ldi	r22, 0x60	; 96
    1e3c:	73 e4       	ldi	r23, 0x43	; 67
    1e3e:	8a e0       	ldi	r24, 0x0A	; 10
    1e40:	0e 94 43 01 	call	0x286	; 0x286 <reg_servo_angle>
    1e44:	40 e0       	ldi	r20, 0x00	; 0
    1e46:	50 e0       	ldi	r21, 0x00	; 0
    1e48:	64 e8       	ldi	r22, 0x84	; 132
    1e4a:	72 e4       	ldi	r23, 0x42	; 66
    1e4c:	8b e0       	ldi	r24, 0x0B	; 11
    1e4e:	0e 94 43 01 	call	0x286	; 0x286 <reg_servo_angle>
    1e52:	40 e0       	ldi	r20, 0x00	; 0
    1e54:	50 e0       	ldi	r21, 0x00	; 0
    1e56:	66 e1       	ldi	r22, 0x16	; 22
    1e58:	73 e4       	ldi	r23, 0x43	; 67
    1e5a:	83 e0       	ldi	r24, 0x03	; 3
    1e5c:	0e 94 43 01 	call	0x286	; 0x286 <reg_servo_angle>
    1e60:	40 e0       	ldi	r20, 0x00	; 0
    1e62:	50 e0       	ldi	r21, 0x00	; 0
    1e64:	6e e9       	ldi	r22, 0x9E	; 158
    1e66:	72 e4       	ldi	r23, 0x42	; 66
    1e68:	84 e0       	ldi	r24, 0x04	; 4
    1e6a:	0e 94 43 01 	call	0x286	; 0x286 <reg_servo_angle>
    1e6e:	40 e0       	ldi	r20, 0x00	; 0
    1e70:	50 e0       	ldi	r21, 0x00	; 0
    1e72:	65 e6       	ldi	r22, 0x65	; 101
    1e74:	73 e4       	ldi	r23, 0x43	; 67
    1e76:	85 e0       	ldi	r24, 0x05	; 5
    1e78:	0e 94 43 01 	call	0x286	; 0x286 <reg_servo_angle>
    1e7c:	40 e0       	ldi	r20, 0x00	; 0
    1e7e:	50 e0       	ldi	r21, 0x00	; 0
    1e80:	66 e1       	ldi	r22, 0x16	; 22
    1e82:	73 e4       	ldi	r23, 0x43	; 67
    1e84:	8c e0       	ldi	r24, 0x0C	; 12
    1e86:	0e 94 43 01 	call	0x286	; 0x286 <reg_servo_angle>
    1e8a:	40 e0       	ldi	r20, 0x00	; 0
    1e8c:	50 e0       	ldi	r21, 0x00	; 0
    1e8e:	6c e4       	ldi	r22, 0x4C	; 76
    1e90:	73 e4       	ldi	r23, 0x43	; 67
    1e92:	8d e0       	ldi	r24, 0x0D	; 13
    1e94:	0e 94 43 01 	call	0x286	; 0x286 <reg_servo_angle>
    1e98:	40 e0       	ldi	r20, 0x00	; 0
    1e9a:	50 e0       	ldi	r21, 0x00	; 0
    1e9c:	60 ea       	ldi	r22, 0xA0	; 160
    1e9e:	72 e4       	ldi	r23, 0x42	; 66
    1ea0:	8e e0       	ldi	r24, 0x0E	; 14
    1ea2:	0e 94 43 01 	call	0x286	; 0x286 <reg_servo_angle>
    1ea6:	40 e0       	ldi	r20, 0x00	; 0
    1ea8:	50 e0       	ldi	r21, 0x00	; 0
    1eaa:	67 e0       	ldi	r22, 0x07	; 7
    1eac:	73 e4       	ldi	r23, 0x43	; 67
    1eae:	80 e0       	ldi	r24, 0x00	; 0
    1eb0:	0e 94 43 01 	call	0x286	; 0x286 <reg_servo_angle>
    1eb4:	40 e0       	ldi	r20, 0x00	; 0
    1eb6:	50 e0       	ldi	r21, 0x00	; 0
    1eb8:	6c eb       	ldi	r22, 0xBC	; 188
    1eba:	72 e4       	ldi	r23, 0x42	; 66
    1ebc:	81 e0       	ldi	r24, 0x01	; 1
    1ebe:	0e 94 43 01 	call	0x286	; 0x286 <reg_servo_angle>
    1ec2:	40 e0       	ldi	r20, 0x00	; 0
    1ec4:	50 e0       	ldi	r21, 0x00	; 0
    1ec6:	60 e6       	ldi	r22, 0x60	; 96
    1ec8:	73 e4       	ldi	r23, 0x43	; 67
    1eca:	82 e0       	ldi	r24, 0x02	; 2
    1ecc:	0e 94 43 01 	call	0x286	; 0x286 <reg_servo_angle>
    1ed0:	40 e0       	ldi	r20, 0x00	; 0
    1ed2:	50 e0       	ldi	r21, 0x00	; 0
    1ed4:	65 e2       	ldi	r22, 0x25	; 37
    1ed6:	73 e4       	ldi	r23, 0x43	; 67
    1ed8:	8f e0       	ldi	r24, 0x0F	; 15
    1eda:	0e 94 43 01 	call	0x286	; 0x286 <reg_servo_angle>
    1ede:	40 e0       	ldi	r20, 0x00	; 0
    1ee0:	50 e0       	ldi	r21, 0x00	; 0
    1ee2:	60 e6       	ldi	r22, 0x60	; 96
    1ee4:	73 e4       	ldi	r23, 0x43	; 67
    1ee6:	80 e1       	ldi	r24, 0x10	; 16
    1ee8:	0e 94 43 01 	call	0x286	; 0x286 <reg_servo_angle>
    1eec:	40 e0       	ldi	r20, 0x00	; 0
    1eee:	50 e0       	ldi	r21, 0x00	; 0
    1ef0:	64 e8       	ldi	r22, 0x84	; 132
    1ef2:	72 e4       	ldi	r23, 0x42	; 66
    1ef4:	81 e1       	ldi	r24, 0x11	; 17
    1ef6:	0e 94 43 01 	call	0x286	; 0x286 <reg_servo_angle>
    1efa:	2f ef       	ldi	r18, 0xFF	; 255
    1efc:	87 ee       	ldi	r24, 0xE7	; 231
    1efe:	93 e0       	ldi	r25, 0x03	; 3
    1f00:	21 50       	subi	r18, 0x01	; 1
    1f02:	80 40       	sbci	r24, 0x00	; 0
    1f04:	90 40       	sbci	r25, 0x00	; 0
    1f06:	e1 f7       	brne	.-8      	; 0x1f00 <two_rot_right60+0x102>
    1f08:	00 c0       	rjmp	.+0      	; 0x1f0a <two_rot_right60+0x10c>
    1f0a:	00 00       	nop
    1f0c:	0c 94 b3 01 	jmp	0x366	; 0x366 <action>
    1f10:	08 95       	ret

00001f12 <three_rot_right60>:
    1f12:	40 e0       	ldi	r20, 0x00	; 0
    1f14:	50 e0       	ldi	r21, 0x00	; 0
    1f16:	66 e1       	ldi	r22, 0x16	; 22
    1f18:	73 e4       	ldi	r23, 0x43	; 67
    1f1a:	86 e0       	ldi	r24, 0x06	; 6
    1f1c:	0e 94 43 01 	call	0x286	; 0x286 <reg_servo_angle>
    1f20:	40 e0       	ldi	r20, 0x00	; 0
    1f22:	50 e0       	ldi	r21, 0x00	; 0
    1f24:	6e eb       	ldi	r22, 0xBE	; 190
    1f26:	72 e4       	ldi	r23, 0x42	; 66
    1f28:	87 e0       	ldi	r24, 0x07	; 7
    1f2a:	0e 94 43 01 	call	0x286	; 0x286 <reg_servo_angle>
    1f2e:	40 e0       	ldi	r20, 0x00	; 0
    1f30:	50 e0       	ldi	r21, 0x00	; 0
    1f32:	6d e5       	ldi	r22, 0x5D	; 93
    1f34:	73 e4       	ldi	r23, 0x43	; 67
    1f36:	88 e0       	ldi	r24, 0x08	; 8
    1f38:	0e 94 43 01 	call	0x286	; 0x286 <reg_servo_angle>
    1f3c:	40 e0       	ldi	r20, 0x00	; 0
    1f3e:	50 e0       	ldi	r21, 0x00	; 0
    1f40:	66 e1       	ldi	r22, 0x16	; 22
    1f42:	73 e4       	ldi	r23, 0x43	; 67
    1f44:	89 e0       	ldi	r24, 0x09	; 9
    1f46:	0e 94 43 01 	call	0x286	; 0x286 <reg_servo_angle>
    1f4a:	40 e0       	ldi	r20, 0x00	; 0
    1f4c:	50 e0       	ldi	r21, 0x00	; 0
    1f4e:	6e e5       	ldi	r22, 0x5E	; 94
    1f50:	73 e4       	ldi	r23, 0x43	; 67
    1f52:	8a e0       	ldi	r24, 0x0A	; 10
    1f54:	0e 94 43 01 	call	0x286	; 0x286 <reg_servo_angle>
    1f58:	40 e0       	ldi	r20, 0x00	; 0
    1f5a:	50 e0       	ldi	r21, 0x00	; 0
    1f5c:	6a e8       	ldi	r22, 0x8A	; 138
    1f5e:	72 e4       	ldi	r23, 0x42	; 66
    1f60:	8b e0       	ldi	r24, 0x0B	; 11
    1f62:	0e 94 43 01 	call	0x286	; 0x286 <reg_servo_angle>
    1f66:	40 e0       	ldi	r20, 0x00	; 0
    1f68:	50 e0       	ldi	r21, 0x00	; 0
    1f6a:	65 e2       	ldi	r22, 0x25	; 37
    1f6c:	73 e4       	ldi	r23, 0x43	; 67
    1f6e:	83 e0       	ldi	r24, 0x03	; 3
    1f70:	0e 94 43 01 	call	0x286	; 0x286 <reg_servo_angle>
    1f74:	40 e0       	ldi	r20, 0x00	; 0
    1f76:	50 e0       	ldi	r21, 0x00	; 0
    1f78:	60 ea       	ldi	r22, 0xA0	; 160
    1f7a:	72 e4       	ldi	r23, 0x42	; 66
    1f7c:	84 e0       	ldi	r24, 0x04	; 4
    1f7e:	0e 94 43 01 	call	0x286	; 0x286 <reg_servo_angle>
    1f82:	40 e0       	ldi	r20, 0x00	; 0
    1f84:	50 e0       	ldi	r21, 0x00	; 0
    1f86:	64 e6       	ldi	r22, 0x64	; 100
    1f88:	73 e4       	ldi	r23, 0x43	; 67
    1f8a:	85 e0       	ldi	r24, 0x05	; 5
    1f8c:	0e 94 43 01 	call	0x286	; 0x286 <reg_servo_angle>
    1f90:	40 e0       	ldi	r20, 0x00	; 0
    1f92:	50 e0       	ldi	r21, 0x00	; 0
    1f94:	67 e0       	ldi	r22, 0x07	; 7
    1f96:	73 e4       	ldi	r23, 0x43	; 67
    1f98:	8c e0       	ldi	r24, 0x0C	; 12
    1f9a:	0e 94 43 01 	call	0x286	; 0x286 <reg_servo_angle>
    1f9e:	40 e0       	ldi	r20, 0x00	; 0
    1fa0:	50 e0       	ldi	r21, 0x00	; 0
    1fa2:	6b e4       	ldi	r22, 0x4B	; 75
    1fa4:	73 e4       	ldi	r23, 0x43	; 67
    1fa6:	8d e0       	ldi	r24, 0x0D	; 13
    1fa8:	0e 94 43 01 	call	0x286	; 0x286 <reg_servo_angle>
    1fac:	40 e0       	ldi	r20, 0x00	; 0
    1fae:	50 e0       	ldi	r21, 0x00	; 0
    1fb0:	64 ea       	ldi	r22, 0xA4	; 164
    1fb2:	72 e4       	ldi	r23, 0x42	; 66
    1fb4:	8e e0       	ldi	r24, 0x0E	; 14
    1fb6:	0e 94 43 01 	call	0x286	; 0x286 <reg_servo_angle>
    1fba:	40 e0       	ldi	r20, 0x00	; 0
    1fbc:	50 e0       	ldi	r21, 0x00	; 0
    1fbe:	60 ef       	ldi	r22, 0xF0	; 240
    1fc0:	72 e4       	ldi	r23, 0x42	; 66
    1fc2:	80 e0       	ldi	r24, 0x00	; 0
    1fc4:	0e 94 43 01 	call	0x286	; 0x286 <reg_servo_angle>
    1fc8:	40 e0       	ldi	r20, 0x00	; 0
    1fca:	50 e0       	ldi	r21, 0x00	; 0
    1fcc:	6c eb       	ldi	r22, 0xBC	; 188
    1fce:	72 e4       	ldi	r23, 0x42	; 66
    1fd0:	81 e0       	ldi	r24, 0x01	; 1
    1fd2:	0e 94 43 01 	call	0x286	; 0x286 <reg_servo_angle>
    1fd6:	40 e0       	ldi	r20, 0x00	; 0
    1fd8:	50 e0       	ldi	r21, 0x00	; 0
    1fda:	6f e5       	ldi	r22, 0x5F	; 95
    1fdc:	73 e4       	ldi	r23, 0x43	; 67
    1fde:	82 e0       	ldi	r24, 0x02	; 2
    1fe0:	0e 94 43 01 	call	0x286	; 0x286 <reg_servo_angle>
    1fe4:	40 e0       	ldi	r20, 0x00	; 0
    1fe6:	50 e0       	ldi	r21, 0x00	; 0
    1fe8:	64 e3       	ldi	r22, 0x34	; 52
    1fea:	73 e4       	ldi	r23, 0x43	; 67
    1fec:	8f e0       	ldi	r24, 0x0F	; 15
    1fee:	0e 94 43 01 	call	0x286	; 0x286 <reg_servo_angle>
    1ff2:	40 e0       	ldi	r20, 0x00	; 0
    1ff4:	50 e0       	ldi	r21, 0x00	; 0
    1ff6:	6f e5       	ldi	r22, 0x5F	; 95
    1ff8:	73 e4       	ldi	r23, 0x43	; 67
    1ffa:	80 e1       	ldi	r24, 0x10	; 16
    1ffc:	0e 94 43 01 	call	0x286	; 0x286 <reg_servo_angle>
    2000:	40 e0       	ldi	r20, 0x00	; 0
    2002:	50 e0       	ldi	r21, 0x00	; 0
    2004:	66 e8       	ldi	r22, 0x86	; 134
    2006:	72 e4       	ldi	r23, 0x42	; 66
    2008:	81 e1       	ldi	r24, 0x11	; 17
    200a:	0e 94 43 01 	call	0x286	; 0x286 <reg_servo_angle>
    200e:	2f ef       	ldi	r18, 0xFF	; 255
    2010:	87 ee       	ldi	r24, 0xE7	; 231
    2012:	93 e0       	ldi	r25, 0x03	; 3
    2014:	21 50       	subi	r18, 0x01	; 1
    2016:	80 40       	sbci	r24, 0x00	; 0
    2018:	90 40       	sbci	r25, 0x00	; 0
    201a:	e1 f7       	brne	.-8      	; 0x2014 <three_rot_right60+0x102>
    201c:	00 c0       	rjmp	.+0      	; 0x201e <three_rot_right60+0x10c>
    201e:	00 00       	nop
    2020:	0c 94 b3 01 	jmp	0x366	; 0x366 <action>
    2024:	08 95       	ret

00002026 <four_rot_right60>:
    2026:	40 e0       	ldi	r20, 0x00	; 0
    2028:	50 e0       	ldi	r21, 0x00	; 0
    202a:	66 e1       	ldi	r22, 0x16	; 22
    202c:	73 e4       	ldi	r23, 0x43	; 67
    202e:	86 e0       	ldi	r24, 0x06	; 6
    2030:	0e 94 43 01 	call	0x286	; 0x286 <reg_servo_angle>
    2034:	40 e0       	ldi	r20, 0x00	; 0
    2036:	50 e0       	ldi	r21, 0x00	; 0
    2038:	6e eb       	ldi	r22, 0xBE	; 190
    203a:	72 e4       	ldi	r23, 0x42	; 66
    203c:	87 e0       	ldi	r24, 0x07	; 7
    203e:	0e 94 43 01 	call	0x286	; 0x286 <reg_servo_angle>
    2042:	40 e0       	ldi	r20, 0x00	; 0
    2044:	50 e0       	ldi	r21, 0x00	; 0
    2046:	6d e5       	ldi	r22, 0x5D	; 93
    2048:	73 e4       	ldi	r23, 0x43	; 67
    204a:	88 e0       	ldi	r24, 0x08	; 8
    204c:	0e 94 43 01 	call	0x286	; 0x286 <reg_servo_angle>
    2050:	40 e0       	ldi	r20, 0x00	; 0
    2052:	50 e0       	ldi	r21, 0x00	; 0
    2054:	66 e1       	ldi	r22, 0x16	; 22
    2056:	73 e4       	ldi	r23, 0x43	; 67
    2058:	89 e0       	ldi	r24, 0x09	; 9
    205a:	0e 94 43 01 	call	0x286	; 0x286 <reg_servo_angle>
    205e:	40 e0       	ldi	r20, 0x00	; 0
    2060:	50 e0       	ldi	r21, 0x00	; 0
    2062:	6d e4       	ldi	r22, 0x4D	; 77
    2064:	73 e4       	ldi	r23, 0x43	; 67
    2066:	8a e0       	ldi	r24, 0x0A	; 10
    2068:	0e 94 43 01 	call	0x286	; 0x286 <reg_servo_angle>
    206c:	40 e0       	ldi	r20, 0x00	; 0
    206e:	50 e0       	ldi	r21, 0x00	; 0
    2070:	6e e9       	ldi	r22, 0x9E	; 158
    2072:	72 e4       	ldi	r23, 0x42	; 66
    2074:	8b e0       	ldi	r24, 0x0B	; 11
    2076:	0e 94 43 01 	call	0x286	; 0x286 <reg_servo_angle>
    207a:	40 e0       	ldi	r20, 0x00	; 0
    207c:	50 e0       	ldi	r21, 0x00	; 0
    207e:	65 e2       	ldi	r22, 0x25	; 37
    2080:	73 e4       	ldi	r23, 0x43	; 67
    2082:	83 e0       	ldi	r24, 0x03	; 3
    2084:	0e 94 43 01 	call	0x286	; 0x286 <reg_servo_angle>
    2088:	40 e0       	ldi	r20, 0x00	; 0
    208a:	50 e0       	ldi	r21, 0x00	; 0
    208c:	62 ec       	ldi	r22, 0xC2	; 194
    208e:	72 e4       	ldi	r23, 0x42	; 66
    2090:	84 e0       	ldi	r24, 0x04	; 4
    2092:	0e 94 43 01 	call	0x286	; 0x286 <reg_servo_angle>
    2096:	40 e0       	ldi	r20, 0x00	; 0
    2098:	50 e0       	ldi	r21, 0x00	; 0
    209a:	6a e5       	ldi	r22, 0x5A	; 90
    209c:	73 e4       	ldi	r23, 0x43	; 67
    209e:	85 e0       	ldi	r24, 0x05	; 5
    20a0:	0e 94 43 01 	call	0x286	; 0x286 <reg_servo_angle>
    20a4:	40 e0       	ldi	r20, 0x00	; 0
    20a6:	50 e0       	ldi	r21, 0x00	; 0
    20a8:	67 e0       	ldi	r22, 0x07	; 7
    20aa:	73 e4       	ldi	r23, 0x43	; 67
    20ac:	8c e0       	ldi	r24, 0x0C	; 12
    20ae:	0e 94 43 01 	call	0x286	; 0x286 <reg_servo_angle>
    20b2:	40 e0       	ldi	r20, 0x00	; 0
    20b4:	50 e0       	ldi	r21, 0x00	; 0
    20b6:	6b e4       	ldi	r22, 0x4B	; 75
    20b8:	73 e4       	ldi	r23, 0x43	; 67
    20ba:	8d e0       	ldi	r24, 0x0D	; 13
    20bc:	0e 94 43 01 	call	0x286	; 0x286 <reg_servo_angle>
    20c0:	40 e0       	ldi	r20, 0x00	; 0
    20c2:	50 e0       	ldi	r21, 0x00	; 0
    20c4:	64 ea       	ldi	r22, 0xA4	; 164
    20c6:	72 e4       	ldi	r23, 0x42	; 66
    20c8:	8e e0       	ldi	r24, 0x0E	; 14
    20ca:	0e 94 43 01 	call	0x286	; 0x286 <reg_servo_angle>
    20ce:	40 e0       	ldi	r20, 0x00	; 0
    20d0:	50 e0       	ldi	r21, 0x00	; 0
    20d2:	60 ef       	ldi	r22, 0xF0	; 240
    20d4:	72 e4       	ldi	r23, 0x42	; 66
    20d6:	80 e0       	ldi	r24, 0x00	; 0
    20d8:	0e 94 43 01 	call	0x286	; 0x286 <reg_servo_angle>
    20dc:	40 e0       	ldi	r20, 0x00	; 0
    20de:	50 e0       	ldi	r21, 0x00	; 0
    20e0:	6c eb       	ldi	r22, 0xBC	; 188
    20e2:	72 e4       	ldi	r23, 0x42	; 66
    20e4:	81 e0       	ldi	r24, 0x01	; 1
    20e6:	0e 94 43 01 	call	0x286	; 0x286 <reg_servo_angle>
    20ea:	40 e0       	ldi	r20, 0x00	; 0
    20ec:	50 e0       	ldi	r21, 0x00	; 0
    20ee:	6f e5       	ldi	r22, 0x5F	; 95
    20f0:	73 e4       	ldi	r23, 0x43	; 67
    20f2:	82 e0       	ldi	r24, 0x02	; 2
    20f4:	0e 94 43 01 	call	0x286	; 0x286 <reg_servo_angle>
    20f8:	40 e0       	ldi	r20, 0x00	; 0
    20fa:	50 e0       	ldi	r21, 0x00	; 0
    20fc:	64 e3       	ldi	r22, 0x34	; 52
    20fe:	73 e4       	ldi	r23, 0x43	; 67
    2100:	8f e0       	ldi	r24, 0x0F	; 15
    2102:	0e 94 43 01 	call	0x286	; 0x286 <reg_servo_angle>
    2106:	40 e0       	ldi	r20, 0x00	; 0
    2108:	50 e0       	ldi	r21, 0x00	; 0
    210a:	6e e4       	ldi	r22, 0x4E	; 78
    210c:	73 e4       	ldi	r23, 0x43	; 67
    210e:	80 e1       	ldi	r24, 0x10	; 16
    2110:	0e 94 43 01 	call	0x286	; 0x286 <reg_servo_angle>
    2114:	40 e0       	ldi	r20, 0x00	; 0
    2116:	50 e0       	ldi	r21, 0x00	; 0
    2118:	6a e9       	ldi	r22, 0x9A	; 154
    211a:	72 e4       	ldi	r23, 0x42	; 66
    211c:	81 e1       	ldi	r24, 0x11	; 17
    211e:	0e 94 43 01 	call	0x286	; 0x286 <reg_servo_angle>
    2122:	2f ef       	ldi	r18, 0xFF	; 255
    2124:	87 ee       	ldi	r24, 0xE7	; 231
    2126:	93 e0       	ldi	r25, 0x03	; 3
    2128:	21 50       	subi	r18, 0x01	; 1
    212a:	80 40       	sbci	r24, 0x00	; 0
    212c:	90 40       	sbci	r25, 0x00	; 0
    212e:	e1 f7       	brne	.-8      	; 0x2128 <four_rot_right60+0x102>
    2130:	00 c0       	rjmp	.+0      	; 0x2132 <four_rot_right60+0x10c>
    2132:	00 00       	nop
    2134:	0c 94 b3 01 	jmp	0x366	; 0x366 <action>
    2138:	08 95       	ret

0000213a <five_rot_right60>:
    213a:	40 e0       	ldi	r20, 0x00	; 0
    213c:	50 e0       	ldi	r21, 0x00	; 0
    213e:	66 e1       	ldi	r22, 0x16	; 22
    2140:	73 e4       	ldi	r23, 0x43	; 67
    2142:	86 e0       	ldi	r24, 0x06	; 6
    2144:	0e 94 43 01 	call	0x286	; 0x286 <reg_servo_angle>
    2148:	40 e0       	ldi	r20, 0x00	; 0
    214a:	50 e0       	ldi	r21, 0x00	; 0
    214c:	6c e9       	ldi	r22, 0x9C	; 156
    214e:	72 e4       	ldi	r23, 0x42	; 66
    2150:	87 e0       	ldi	r24, 0x07	; 7
    2152:	0e 94 43 01 	call	0x286	; 0x286 <reg_servo_angle>
    2156:	40 e0       	ldi	r20, 0x00	; 0
    2158:	50 e0       	ldi	r21, 0x00	; 0
    215a:	67 e6       	ldi	r22, 0x67	; 103
    215c:	73 e4       	ldi	r23, 0x43	; 67
    215e:	88 e0       	ldi	r24, 0x08	; 8
    2160:	0e 94 43 01 	call	0x286	; 0x286 <reg_servo_angle>
    2164:	40 e0       	ldi	r20, 0x00	; 0
    2166:	50 e0       	ldi	r21, 0x00	; 0
    2168:	66 e1       	ldi	r22, 0x16	; 22
    216a:	73 e4       	ldi	r23, 0x43	; 67
    216c:	89 e0       	ldi	r24, 0x09	; 9
    216e:	0e 94 43 01 	call	0x286	; 0x286 <reg_servo_angle>
    2172:	40 e0       	ldi	r20, 0x00	; 0
    2174:	50 e0       	ldi	r21, 0x00	; 0
    2176:	6d e4       	ldi	r22, 0x4D	; 77
    2178:	73 e4       	ldi	r23, 0x43	; 67
    217a:	8a e0       	ldi	r24, 0x0A	; 10
    217c:	0e 94 43 01 	call	0x286	; 0x286 <reg_servo_angle>
    2180:	40 e0       	ldi	r20, 0x00	; 0
    2182:	50 e0       	ldi	r21, 0x00	; 0
    2184:	6e e9       	ldi	r22, 0x9E	; 158
    2186:	72 e4       	ldi	r23, 0x42	; 66
    2188:	8b e0       	ldi	r24, 0x0B	; 11
    218a:	0e 94 43 01 	call	0x286	; 0x286 <reg_servo_angle>
    218e:	40 e0       	ldi	r20, 0x00	; 0
    2190:	50 e0       	ldi	r21, 0x00	; 0
    2192:	65 e2       	ldi	r22, 0x25	; 37
    2194:	73 e4       	ldi	r23, 0x43	; 67
    2196:	83 e0       	ldi	r24, 0x03	; 3
    2198:	0e 94 43 01 	call	0x286	; 0x286 <reg_servo_angle>
    219c:	40 e0       	ldi	r20, 0x00	; 0
    219e:	50 e0       	ldi	r21, 0x00	; 0
    21a0:	62 ec       	ldi	r22, 0xC2	; 194
    21a2:	72 e4       	ldi	r23, 0x42	; 66
    21a4:	84 e0       	ldi	r24, 0x04	; 4
    21a6:	0e 94 43 01 	call	0x286	; 0x286 <reg_servo_angle>
    21aa:	40 e0       	ldi	r20, 0x00	; 0
    21ac:	50 e0       	ldi	r21, 0x00	; 0
    21ae:	6a e5       	ldi	r22, 0x5A	; 90
    21b0:	73 e4       	ldi	r23, 0x43	; 67
    21b2:	85 e0       	ldi	r24, 0x05	; 5
    21b4:	0e 94 43 01 	call	0x286	; 0x286 <reg_servo_angle>
    21b8:	40 e0       	ldi	r20, 0x00	; 0
    21ba:	50 e0       	ldi	r21, 0x00	; 0
    21bc:	67 e0       	ldi	r22, 0x07	; 7
    21be:	73 e4       	ldi	r23, 0x43	; 67
    21c0:	8c e0       	ldi	r24, 0x0C	; 12
    21c2:	0e 94 43 01 	call	0x286	; 0x286 <reg_servo_angle>
    21c6:	40 e0       	ldi	r20, 0x00	; 0
    21c8:	50 e0       	ldi	r21, 0x00	; 0
    21ca:	6c e5       	ldi	r22, 0x5C	; 92
    21cc:	73 e4       	ldi	r23, 0x43	; 67
    21ce:	8d e0       	ldi	r24, 0x0D	; 13
    21d0:	0e 94 43 01 	call	0x286	; 0x286 <reg_servo_angle>
    21d4:	40 e0       	ldi	r20, 0x00	; 0
    21d6:	50 e0       	ldi	r21, 0x00	; 0
    21d8:	60 e9       	ldi	r22, 0x90	; 144
    21da:	72 e4       	ldi	r23, 0x42	; 66
    21dc:	8e e0       	ldi	r24, 0x0E	; 14
    21de:	0e 94 43 01 	call	0x286	; 0x286 <reg_servo_angle>
    21e2:	40 e0       	ldi	r20, 0x00	; 0
    21e4:	50 e0       	ldi	r21, 0x00	; 0
    21e6:	60 ef       	ldi	r22, 0xF0	; 240
    21e8:	72 e4       	ldi	r23, 0x42	; 66
    21ea:	80 e0       	ldi	r24, 0x00	; 0
    21ec:	0e 94 43 01 	call	0x286	; 0x286 <reg_servo_angle>
    21f0:	40 e0       	ldi	r20, 0x00	; 0
    21f2:	50 e0       	ldi	r21, 0x00	; 0
    21f4:	6a e9       	ldi	r22, 0x9A	; 154
    21f6:	72 e4       	ldi	r23, 0x42	; 66
    21f8:	81 e0       	ldi	r24, 0x01	; 1
    21fa:	0e 94 43 01 	call	0x286	; 0x286 <reg_servo_angle>
    21fe:	40 e0       	ldi	r20, 0x00	; 0
    2200:	50 e0       	ldi	r21, 0x00	; 0
    2202:	69 e6       	ldi	r22, 0x69	; 105
    2204:	73 e4       	ldi	r23, 0x43	; 67
    2206:	82 e0       	ldi	r24, 0x02	; 2
    2208:	0e 94 43 01 	call	0x286	; 0x286 <reg_servo_angle>
    220c:	40 e0       	ldi	r20, 0x00	; 0
    220e:	50 e0       	ldi	r21, 0x00	; 0
    2210:	64 e3       	ldi	r22, 0x34	; 52
    2212:	73 e4       	ldi	r23, 0x43	; 67
    2214:	8f e0       	ldi	r24, 0x0F	; 15
    2216:	0e 94 43 01 	call	0x286	; 0x286 <reg_servo_angle>
    221a:	40 e0       	ldi	r20, 0x00	; 0
    221c:	50 e0       	ldi	r21, 0x00	; 0
    221e:	6e e4       	ldi	r22, 0x4E	; 78
    2220:	73 e4       	ldi	r23, 0x43	; 67
    2222:	80 e1       	ldi	r24, 0x10	; 16
    2224:	0e 94 43 01 	call	0x286	; 0x286 <reg_servo_angle>
    2228:	40 e0       	ldi	r20, 0x00	; 0
    222a:	50 e0       	ldi	r21, 0x00	; 0
    222c:	6a e9       	ldi	r22, 0x9A	; 154
    222e:	72 e4       	ldi	r23, 0x42	; 66
    2230:	81 e1       	ldi	r24, 0x11	; 17
    2232:	0e 94 43 01 	call	0x286	; 0x286 <reg_servo_angle>
    2236:	2f ef       	ldi	r18, 0xFF	; 255
    2238:	87 ee       	ldi	r24, 0xE7	; 231
    223a:	93 e0       	ldi	r25, 0x03	; 3
    223c:	21 50       	subi	r18, 0x01	; 1
    223e:	80 40       	sbci	r24, 0x00	; 0
    2240:	90 40       	sbci	r25, 0x00	; 0
    2242:	e1 f7       	brne	.-8      	; 0x223c <five_rot_right60+0x102>
    2244:	00 c0       	rjmp	.+0      	; 0x2246 <five_rot_right60+0x10c>
    2246:	00 00       	nop
    2248:	0c 94 b3 01 	jmp	0x366	; 0x366 <action>
    224c:	08 95       	ret

0000224e <six_rot_right60>:
    224e:	40 e0       	ldi	r20, 0x00	; 0
    2250:	50 e0       	ldi	r21, 0x00	; 0
    2252:	65 e2       	ldi	r22, 0x25	; 37
    2254:	73 e4       	ldi	r23, 0x43	; 67
    2256:	86 e0       	ldi	r24, 0x06	; 6
    2258:	0e 94 43 01 	call	0x286	; 0x286 <reg_servo_angle>
    225c:	40 e0       	ldi	r20, 0x00	; 0
    225e:	50 e0       	ldi	r21, 0x00	; 0
    2260:	68 e9       	ldi	r22, 0x98	; 152
    2262:	72 e4       	ldi	r23, 0x42	; 66
    2264:	87 e0       	ldi	r24, 0x07	; 7
    2266:	0e 94 43 01 	call	0x286	; 0x286 <reg_servo_angle>
    226a:	40 e0       	ldi	r20, 0x00	; 0
    226c:	50 e0       	ldi	r21, 0x00	; 0
    226e:	6a e6       	ldi	r22, 0x6A	; 106
    2270:	73 e4       	ldi	r23, 0x43	; 67
    2272:	88 e0       	ldi	r24, 0x08	; 8
    2274:	0e 94 43 01 	call	0x286	; 0x286 <reg_servo_angle>
    2278:	40 e0       	ldi	r20, 0x00	; 0
    227a:	50 e0       	ldi	r21, 0x00	; 0
    227c:	67 e0       	ldi	r22, 0x07	; 7
    227e:	73 e4       	ldi	r23, 0x43	; 67
    2280:	89 e0       	ldi	r24, 0x09	; 9
    2282:	0e 94 43 01 	call	0x286	; 0x286 <reg_servo_angle>
    2286:	40 e0       	ldi	r20, 0x00	; 0
    2288:	50 e0       	ldi	r21, 0x00	; 0
    228a:	6e e4       	ldi	r22, 0x4E	; 78
    228c:	73 e4       	ldi	r23, 0x43	; 67
    228e:	8a e0       	ldi	r24, 0x0A	; 10
    2290:	0e 94 43 01 	call	0x286	; 0x286 <reg_servo_angle>
    2294:	40 e0       	ldi	r20, 0x00	; 0
    2296:	50 e0       	ldi	r21, 0x00	; 0
    2298:	68 e9       	ldi	r22, 0x98	; 152
    229a:	72 e4       	ldi	r23, 0x42	; 66
    229c:	8b e0       	ldi	r24, 0x0B	; 11
    229e:	0e 94 43 01 	call	0x286	; 0x286 <reg_servo_angle>
    22a2:	40 e0       	ldi	r20, 0x00	; 0
    22a4:	50 e0       	ldi	r21, 0x00	; 0
    22a6:	66 e1       	ldi	r22, 0x16	; 22
    22a8:	73 e4       	ldi	r23, 0x43	; 67
    22aa:	83 e0       	ldi	r24, 0x03	; 3
    22ac:	0e 94 43 01 	call	0x286	; 0x286 <reg_servo_angle>
    22b0:	40 e0       	ldi	r20, 0x00	; 0
    22b2:	50 e0       	ldi	r21, 0x00	; 0
    22b4:	60 ec       	ldi	r22, 0xC0	; 192
    22b6:	72 e4       	ldi	r23, 0x42	; 66
    22b8:	84 e0       	ldi	r24, 0x04	; 4
    22ba:	0e 94 43 01 	call	0x286	; 0x286 <reg_servo_angle>
    22be:	40 e0       	ldi	r20, 0x00	; 0
    22c0:	50 e0       	ldi	r21, 0x00	; 0
    22c2:	6c e5       	ldi	r22, 0x5C	; 92
    22c4:	73 e4       	ldi	r23, 0x43	; 67
    22c6:	85 e0       	ldi	r24, 0x05	; 5
    22c8:	0e 94 43 01 	call	0x286	; 0x286 <reg_servo_angle>
    22cc:	40 e0       	ldi	r20, 0x00	; 0
    22ce:	50 e0       	ldi	r21, 0x00	; 0
    22d0:	66 e1       	ldi	r22, 0x16	; 22
    22d2:	73 e4       	ldi	r23, 0x43	; 67
    22d4:	8c e0       	ldi	r24, 0x0C	; 12
    22d6:	0e 94 43 01 	call	0x286	; 0x286 <reg_servo_angle>
    22da:	40 e0       	ldi	r20, 0x00	; 0
    22dc:	50 e0       	ldi	r21, 0x00	; 0
    22de:	6d e5       	ldi	r22, 0x5D	; 93
    22e0:	73 e4       	ldi	r23, 0x43	; 67
    22e2:	8d e0       	ldi	r24, 0x0D	; 13
    22e4:	0e 94 43 01 	call	0x286	; 0x286 <reg_servo_angle>
    22e8:	40 e0       	ldi	r20, 0x00	; 0
    22ea:	50 e0       	ldi	r21, 0x00	; 0
    22ec:	6e e8       	ldi	r22, 0x8E	; 142
    22ee:	72 e4       	ldi	r23, 0x42	; 66
    22f0:	8e e0       	ldi	r24, 0x0E	; 14
    22f2:	0e 94 43 01 	call	0x286	; 0x286 <reg_servo_angle>
    22f6:	40 e0       	ldi	r20, 0x00	; 0
    22f8:	50 e0       	ldi	r21, 0x00	; 0
    22fa:	67 e0       	ldi	r22, 0x07	; 7
    22fc:	73 e4       	ldi	r23, 0x43	; 67
    22fe:	80 e0       	ldi	r24, 0x00	; 0
    2300:	0e 94 43 01 	call	0x286	; 0x286 <reg_servo_angle>
    2304:	40 e0       	ldi	r20, 0x00	; 0
    2306:	50 e0       	ldi	r21, 0x00	; 0
    2308:	68 e9       	ldi	r22, 0x98	; 152
    230a:	72 e4       	ldi	r23, 0x42	; 66
    230c:	81 e0       	ldi	r24, 0x01	; 1
    230e:	0e 94 43 01 	call	0x286	; 0x286 <reg_servo_angle>
    2312:	40 e0       	ldi	r20, 0x00	; 0
    2314:	50 e0       	ldi	r21, 0x00	; 0
    2316:	6a e6       	ldi	r22, 0x6A	; 106
    2318:	73 e4       	ldi	r23, 0x43	; 67
    231a:	82 e0       	ldi	r24, 0x02	; 2
    231c:	0e 94 43 01 	call	0x286	; 0x286 <reg_servo_angle>
    2320:	40 e0       	ldi	r20, 0x00	; 0
    2322:	50 e0       	ldi	r21, 0x00	; 0
    2324:	65 e2       	ldi	r22, 0x25	; 37
    2326:	73 e4       	ldi	r23, 0x43	; 67
    2328:	8f e0       	ldi	r24, 0x0F	; 15
    232a:	0e 94 43 01 	call	0x286	; 0x286 <reg_servo_angle>
    232e:	40 e0       	ldi	r20, 0x00	; 0
    2330:	50 e0       	ldi	r21, 0x00	; 0
    2332:	6e e4       	ldi	r22, 0x4E	; 78
    2334:	73 e4       	ldi	r23, 0x43	; 67
    2336:	80 e1       	ldi	r24, 0x10	; 16
    2338:	0e 94 43 01 	call	0x286	; 0x286 <reg_servo_angle>
    233c:	40 e0       	ldi	r20, 0x00	; 0
    233e:	50 e0       	ldi	r21, 0x00	; 0
    2340:	68 e9       	ldi	r22, 0x98	; 152
    2342:	72 e4       	ldi	r23, 0x42	; 66
    2344:	81 e1       	ldi	r24, 0x11	; 17
    2346:	0e 94 43 01 	call	0x286	; 0x286 <reg_servo_angle>
    234a:	2f ef       	ldi	r18, 0xFF	; 255
    234c:	87 ee       	ldi	r24, 0xE7	; 231
    234e:	93 e0       	ldi	r25, 0x03	; 3
    2350:	21 50       	subi	r18, 0x01	; 1
    2352:	80 40       	sbci	r24, 0x00	; 0
    2354:	90 40       	sbci	r25, 0x00	; 0
    2356:	e1 f7       	brne	.-8      	; 0x2350 <six_rot_right60+0x102>
    2358:	00 c0       	rjmp	.+0      	; 0x235a <six_rot_right60+0x10c>
    235a:	00 00       	nop
    235c:	0c 94 b3 01 	jmp	0x366	; 0x366 <action>
    2360:	08 95       	ret

00002362 <seven_rot_right60>:
    2362:	40 e0       	ldi	r20, 0x00	; 0
    2364:	50 e0       	ldi	r21, 0x00	; 0
    2366:	64 e3       	ldi	r22, 0x34	; 52
    2368:	73 e4       	ldi	r23, 0x43	; 67
    236a:	86 e0       	ldi	r24, 0x06	; 6
    236c:	0e 94 43 01 	call	0x286	; 0x286 <reg_servo_angle>
    2370:	40 e0       	ldi	r20, 0x00	; 0
    2372:	50 e0       	ldi	r21, 0x00	; 0
    2374:	6a e9       	ldi	r22, 0x9A	; 154
    2376:	72 e4       	ldi	r23, 0x42	; 66
    2378:	87 e0       	ldi	r24, 0x07	; 7
    237a:	0e 94 43 01 	call	0x286	; 0x286 <reg_servo_angle>
    237e:	40 e0       	ldi	r20, 0x00	; 0
    2380:	50 e0       	ldi	r21, 0x00	; 0
    2382:	69 e6       	ldi	r22, 0x69	; 105
    2384:	73 e4       	ldi	r23, 0x43	; 67
    2386:	88 e0       	ldi	r24, 0x08	; 8
    2388:	0e 94 43 01 	call	0x286	; 0x286 <reg_servo_angle>
    238c:	40 e0       	ldi	r20, 0x00	; 0
    238e:	50 e0       	ldi	r21, 0x00	; 0
    2390:	60 ef       	ldi	r22, 0xF0	; 240
    2392:	72 e4       	ldi	r23, 0x42	; 66
    2394:	89 e0       	ldi	r24, 0x09	; 9
    2396:	0e 94 43 01 	call	0x286	; 0x286 <reg_servo_angle>
    239a:	40 e0       	ldi	r20, 0x00	; 0
    239c:	50 e0       	ldi	r21, 0x00	; 0
    239e:	6e e4       	ldi	r22, 0x4E	; 78
    23a0:	73 e4       	ldi	r23, 0x43	; 67
    23a2:	8a e0       	ldi	r24, 0x0A	; 10
    23a4:	0e 94 43 01 	call	0x286	; 0x286 <reg_servo_angle>
    23a8:	40 e0       	ldi	r20, 0x00	; 0
    23aa:	50 e0       	ldi	r21, 0x00	; 0
    23ac:	6a e9       	ldi	r22, 0x9A	; 154
    23ae:	72 e4       	ldi	r23, 0x42	; 66
    23b0:	8b e0       	ldi	r24, 0x0B	; 11
    23b2:	0e 94 43 01 	call	0x286	; 0x286 <reg_servo_angle>
    23b6:	40 e0       	ldi	r20, 0x00	; 0
    23b8:	50 e0       	ldi	r21, 0x00	; 0
    23ba:	67 e0       	ldi	r22, 0x07	; 7
    23bc:	73 e4       	ldi	r23, 0x43	; 67
    23be:	83 e0       	ldi	r24, 0x03	; 3
    23c0:	0e 94 43 01 	call	0x286	; 0x286 <reg_servo_angle>
    23c4:	40 e0       	ldi	r20, 0x00	; 0
    23c6:	50 e0       	ldi	r21, 0x00	; 0
    23c8:	62 ec       	ldi	r22, 0xC2	; 194
    23ca:	72 e4       	ldi	r23, 0x42	; 66
    23cc:	84 e0       	ldi	r24, 0x04	; 4
    23ce:	0e 94 43 01 	call	0x286	; 0x286 <reg_servo_angle>
    23d2:	40 e0       	ldi	r20, 0x00	; 0
    23d4:	50 e0       	ldi	r21, 0x00	; 0
    23d6:	6a e5       	ldi	r22, 0x5A	; 90
    23d8:	73 e4       	ldi	r23, 0x43	; 67
    23da:	85 e0       	ldi	r24, 0x05	; 5
    23dc:	0e 94 43 01 	call	0x286	; 0x286 <reg_servo_angle>
    23e0:	40 e0       	ldi	r20, 0x00	; 0
    23e2:	50 e0       	ldi	r21, 0x00	; 0
    23e4:	65 e2       	ldi	r22, 0x25	; 37
    23e6:	73 e4       	ldi	r23, 0x43	; 67
    23e8:	8c e0       	ldi	r24, 0x0C	; 12
    23ea:	0e 94 43 01 	call	0x286	; 0x286 <reg_servo_angle>
    23ee:	40 e0       	ldi	r20, 0x00	; 0
    23f0:	50 e0       	ldi	r21, 0x00	; 0
    23f2:	6c e5       	ldi	r22, 0x5C	; 92
    23f4:	73 e4       	ldi	r23, 0x43	; 67
    23f6:	8d e0       	ldi	r24, 0x0D	; 13
    23f8:	0e 94 43 01 	call	0x286	; 0x286 <reg_servo_angle>
    23fc:	40 e0       	ldi	r20, 0x00	; 0
    23fe:	50 e0       	ldi	r21, 0x00	; 0
    2400:	60 e9       	ldi	r22, 0x90	; 144
    2402:	72 e4       	ldi	r23, 0x42	; 66
    2404:	8e e0       	ldi	r24, 0x0E	; 14
    2406:	0e 94 43 01 	call	0x286	; 0x286 <reg_servo_angle>
    240a:	40 e0       	ldi	r20, 0x00	; 0
    240c:	50 e0       	ldi	r21, 0x00	; 0
    240e:	66 e1       	ldi	r22, 0x16	; 22
    2410:	73 e4       	ldi	r23, 0x43	; 67
    2412:	80 e0       	ldi	r24, 0x00	; 0
    2414:	0e 94 43 01 	call	0x286	; 0x286 <reg_servo_angle>
    2418:	40 e0       	ldi	r20, 0x00	; 0
    241a:	50 e0       	ldi	r21, 0x00	; 0
    241c:	6c e9       	ldi	r22, 0x9C	; 156
    241e:	72 e4       	ldi	r23, 0x42	; 66
    2420:	81 e0       	ldi	r24, 0x01	; 1
    2422:	0e 94 43 01 	call	0x286	; 0x286 <reg_servo_angle>
    2426:	40 e0       	ldi	r20, 0x00	; 0
    2428:	50 e0       	ldi	r21, 0x00	; 0
    242a:	67 e6       	ldi	r22, 0x67	; 103
    242c:	73 e4       	ldi	r23, 0x43	; 67
    242e:	82 e0       	ldi	r24, 0x02	; 2
    2430:	0e 94 43 01 	call	0x286	; 0x286 <reg_servo_angle>
    2434:	40 e0       	ldi	r20, 0x00	; 0
    2436:	50 e0       	ldi	r21, 0x00	; 0
    2438:	66 e1       	ldi	r22, 0x16	; 22
    243a:	73 e4       	ldi	r23, 0x43	; 67
    243c:	8f e0       	ldi	r24, 0x0F	; 15
    243e:	0e 94 43 01 	call	0x286	; 0x286 <reg_servo_angle>
    2442:	40 e0       	ldi	r20, 0x00	; 0
    2444:	50 e0       	ldi	r21, 0x00	; 0
    2446:	6d e4       	ldi	r22, 0x4D	; 77
    2448:	73 e4       	ldi	r23, 0x43	; 67
    244a:	80 e1       	ldi	r24, 0x10	; 16
    244c:	0e 94 43 01 	call	0x286	; 0x286 <reg_servo_angle>
    2450:	40 e0       	ldi	r20, 0x00	; 0
    2452:	50 e0       	ldi	r21, 0x00	; 0
    2454:	6e e9       	ldi	r22, 0x9E	; 158
    2456:	72 e4       	ldi	r23, 0x42	; 66
    2458:	81 e1       	ldi	r24, 0x11	; 17
    245a:	0e 94 43 01 	call	0x286	; 0x286 <reg_servo_angle>
    245e:	2f ef       	ldi	r18, 0xFF	; 255
    2460:	87 ee       	ldi	r24, 0xE7	; 231
    2462:	93 e0       	ldi	r25, 0x03	; 3
    2464:	21 50       	subi	r18, 0x01	; 1
    2466:	80 40       	sbci	r24, 0x00	; 0
    2468:	90 40       	sbci	r25, 0x00	; 0
    246a:	e1 f7       	brne	.-8      	; 0x2464 <seven_rot_right60+0x102>
    246c:	00 c0       	rjmp	.+0      	; 0x246e <seven_rot_right60+0x10c>
    246e:	00 00       	nop
    2470:	0c 94 b3 01 	jmp	0x366	; 0x366 <action>
    2474:	08 95       	ret

00002476 <eight_rot_right60>:
    2476:	40 e0       	ldi	r20, 0x00	; 0
    2478:	50 e0       	ldi	r21, 0x00	; 0
    247a:	64 e3       	ldi	r22, 0x34	; 52
    247c:	73 e4       	ldi	r23, 0x43	; 67
    247e:	86 e0       	ldi	r24, 0x06	; 6
    2480:	0e 94 43 01 	call	0x286	; 0x286 <reg_servo_angle>
    2484:	40 e0       	ldi	r20, 0x00	; 0
    2486:	50 e0       	ldi	r21, 0x00	; 0
    2488:	6c eb       	ldi	r22, 0xBC	; 188
    248a:	72 e4       	ldi	r23, 0x42	; 66
    248c:	87 e0       	ldi	r24, 0x07	; 7
    248e:	0e 94 43 01 	call	0x286	; 0x286 <reg_servo_angle>
    2492:	40 e0       	ldi	r20, 0x00	; 0
    2494:	50 e0       	ldi	r21, 0x00	; 0
    2496:	6f e5       	ldi	r22, 0x5F	; 95
    2498:	73 e4       	ldi	r23, 0x43	; 67
    249a:	88 e0       	ldi	r24, 0x08	; 8
    249c:	0e 94 43 01 	call	0x286	; 0x286 <reg_servo_angle>
    24a0:	40 e0       	ldi	r20, 0x00	; 0
    24a2:	50 e0       	ldi	r21, 0x00	; 0
    24a4:	60 ef       	ldi	r22, 0xF0	; 240
    24a6:	72 e4       	ldi	r23, 0x42	; 66
    24a8:	89 e0       	ldi	r24, 0x09	; 9
    24aa:	0e 94 43 01 	call	0x286	; 0x286 <reg_servo_angle>
    24ae:	40 e0       	ldi	r20, 0x00	; 0
    24b0:	50 e0       	ldi	r21, 0x00	; 0
    24b2:	6e e4       	ldi	r22, 0x4E	; 78
    24b4:	73 e4       	ldi	r23, 0x43	; 67
    24b6:	8a e0       	ldi	r24, 0x0A	; 10
    24b8:	0e 94 43 01 	call	0x286	; 0x286 <reg_servo_angle>
    24bc:	40 e0       	ldi	r20, 0x00	; 0
    24be:	50 e0       	ldi	r21, 0x00	; 0
    24c0:	6a e9       	ldi	r22, 0x9A	; 154
    24c2:	72 e4       	ldi	r23, 0x42	; 66
    24c4:	8b e0       	ldi	r24, 0x0B	; 11
    24c6:	0e 94 43 01 	call	0x286	; 0x286 <reg_servo_angle>
    24ca:	40 e0       	ldi	r20, 0x00	; 0
    24cc:	50 e0       	ldi	r21, 0x00	; 0
    24ce:	67 e0       	ldi	r22, 0x07	; 7
    24d0:	73 e4       	ldi	r23, 0x43	; 67
    24d2:	83 e0       	ldi	r24, 0x03	; 3
    24d4:	0e 94 43 01 	call	0x286	; 0x286 <reg_servo_angle>
    24d8:	40 e0       	ldi	r20, 0x00	; 0
    24da:	50 e0       	ldi	r21, 0x00	; 0
    24dc:	62 ec       	ldi	r22, 0xC2	; 194
    24de:	72 e4       	ldi	r23, 0x42	; 66
    24e0:	84 e0       	ldi	r24, 0x04	; 4
    24e2:	0e 94 43 01 	call	0x286	; 0x286 <reg_servo_angle>
    24e6:	40 e0       	ldi	r20, 0x00	; 0
    24e8:	50 e0       	ldi	r21, 0x00	; 0
    24ea:	6a e5       	ldi	r22, 0x5A	; 90
    24ec:	73 e4       	ldi	r23, 0x43	; 67
    24ee:	85 e0       	ldi	r24, 0x05	; 5
    24f0:	0e 94 43 01 	call	0x286	; 0x286 <reg_servo_angle>
    24f4:	40 e0       	ldi	r20, 0x00	; 0
    24f6:	50 e0       	ldi	r21, 0x00	; 0
    24f8:	65 e2       	ldi	r22, 0x25	; 37
    24fa:	73 e4       	ldi	r23, 0x43	; 67
    24fc:	8c e0       	ldi	r24, 0x0C	; 12
    24fe:	0e 94 43 01 	call	0x286	; 0x286 <reg_servo_angle>
    2502:	40 e0       	ldi	r20, 0x00	; 0
    2504:	50 e0       	ldi	r21, 0x00	; 0
    2506:	6b e4       	ldi	r22, 0x4B	; 75
    2508:	73 e4       	ldi	r23, 0x43	; 67
    250a:	8d e0       	ldi	r24, 0x0D	; 13
    250c:	0e 94 43 01 	call	0x286	; 0x286 <reg_servo_angle>
    2510:	40 e0       	ldi	r20, 0x00	; 0
    2512:	50 e0       	ldi	r21, 0x00	; 0
    2514:	64 ea       	ldi	r22, 0xA4	; 164
    2516:	72 e4       	ldi	r23, 0x42	; 66
    2518:	8e e0       	ldi	r24, 0x0E	; 14
    251a:	0e 94 43 01 	call	0x286	; 0x286 <reg_servo_angle>
    251e:	40 e0       	ldi	r20, 0x00	; 0
    2520:	50 e0       	ldi	r21, 0x00	; 0
    2522:	66 e1       	ldi	r22, 0x16	; 22
    2524:	73 e4       	ldi	r23, 0x43	; 67
    2526:	80 e0       	ldi	r24, 0x00	; 0
    2528:	0e 94 43 01 	call	0x286	; 0x286 <reg_servo_angle>
    252c:	40 e0       	ldi	r20, 0x00	; 0
    252e:	50 e0       	ldi	r21, 0x00	; 0
    2530:	6e eb       	ldi	r22, 0xBE	; 190
    2532:	72 e4       	ldi	r23, 0x42	; 66
    2534:	81 e0       	ldi	r24, 0x01	; 1
    2536:	0e 94 43 01 	call	0x286	; 0x286 <reg_servo_angle>
    253a:	40 e0       	ldi	r20, 0x00	; 0
    253c:	50 e0       	ldi	r21, 0x00	; 0
    253e:	6d e5       	ldi	r22, 0x5D	; 93
    2540:	73 e4       	ldi	r23, 0x43	; 67
    2542:	82 e0       	ldi	r24, 0x02	; 2
    2544:	0e 94 43 01 	call	0x286	; 0x286 <reg_servo_angle>
    2548:	40 e0       	ldi	r20, 0x00	; 0
    254a:	50 e0       	ldi	r21, 0x00	; 0
    254c:	66 e1       	ldi	r22, 0x16	; 22
    254e:	73 e4       	ldi	r23, 0x43	; 67
    2550:	8f e0       	ldi	r24, 0x0F	; 15
    2552:	0e 94 43 01 	call	0x286	; 0x286 <reg_servo_angle>
    2556:	40 e0       	ldi	r20, 0x00	; 0
    2558:	50 e0       	ldi	r21, 0x00	; 0
    255a:	6d e4       	ldi	r22, 0x4D	; 77
    255c:	73 e4       	ldi	r23, 0x43	; 67
    255e:	80 e1       	ldi	r24, 0x10	; 16
    2560:	0e 94 43 01 	call	0x286	; 0x286 <reg_servo_angle>
    2564:	40 e0       	ldi	r20, 0x00	; 0
    2566:	50 e0       	ldi	r21, 0x00	; 0
    2568:	6e e9       	ldi	r22, 0x9E	; 158
    256a:	72 e4       	ldi	r23, 0x42	; 66
    256c:	81 e1       	ldi	r24, 0x11	; 17
    256e:	0e 94 43 01 	call	0x286	; 0x286 <reg_servo_angle>
    2572:	2f ef       	ldi	r18, 0xFF	; 255
    2574:	87 ee       	ldi	r24, 0xE7	; 231
    2576:	93 e0       	ldi	r25, 0x03	; 3
    2578:	21 50       	subi	r18, 0x01	; 1
    257a:	80 40       	sbci	r24, 0x00	; 0
    257c:	90 40       	sbci	r25, 0x00	; 0
    257e:	e1 f7       	brne	.-8      	; 0x2578 <eight_rot_right60+0x102>
    2580:	00 c0       	rjmp	.+0      	; 0x2582 <eight_rot_right60+0x10c>
    2582:	00 00       	nop
    2584:	0c 94 b3 01 	jmp	0x366	; 0x366 <action>
    2588:	08 95       	ret

0000258a <rotate_rot_right60>:
    258a:	75 df       	rcall	.-278    	; 0x2476 <eight_rot_right60>
    258c:	ae db       	rcall	.-2212   	; 0x1cea <one_rot_right60>
    258e:	37 dc       	rcall	.-1938   	; 0x1dfe <two_rot_right60>
    2590:	c0 dc       	rcall	.-1664   	; 0x1f12 <three_rot_right60>
    2592:	49 dd       	rcall	.-1390   	; 0x2026 <four_rot_right60>
    2594:	48 dd       	rcall	.-1392   	; 0x2026 <four_rot_right60>
    2596:	d1 dd       	rcall	.-1118   	; 0x213a <five_rot_right60>
    2598:	5a de       	rcall	.-844    	; 0x224e <six_rot_right60>
    259a:	e3 de       	rcall	.-570    	; 0x2362 <seven_rot_right60>
    259c:	6c cf       	rjmp	.-296    	; 0x2476 <eight_rot_right60>
    259e:	08 95       	ret

000025a0 <one_forward_right>:
    25a0:	40 e0       	ldi	r20, 0x00	; 0
    25a2:	50 e0       	ldi	r21, 0x00	; 0
    25a4:	68 e1       	ldi	r22, 0x18	; 24
    25a6:	73 e4       	ldi	r23, 0x43	; 67
    25a8:	86 e0       	ldi	r24, 0x06	; 6
    25aa:	0e 94 43 01 	call	0x286	; 0x286 <reg_servo_angle>
    25ae:	40 e0       	ldi	r20, 0x00	; 0
    25b0:	50 e0       	ldi	r21, 0x00	; 0
    25b2:	6c ed       	ldi	r22, 0xDC	; 220
    25b4:	72 e4       	ldi	r23, 0x42	; 66
    25b6:	87 e0       	ldi	r24, 0x07	; 7
    25b8:	0e 94 43 01 	call	0x286	; 0x286 <reg_servo_angle>
    25bc:	40 e0       	ldi	r20, 0x00	; 0
    25be:	50 e0       	ldi	r21, 0x00	; 0
    25c0:	63 e4       	ldi	r22, 0x43	; 67
    25c2:	73 e4       	ldi	r23, 0x43	; 67
    25c4:	88 e0       	ldi	r24, 0x08	; 8
    25c6:	0e 94 43 01 	call	0x286	; 0x286 <reg_servo_angle>
    25ca:	40 e0       	ldi	r20, 0x00	; 0
    25cc:	50 e0       	ldi	r21, 0x00	; 0
    25ce:	69 e1       	ldi	r22, 0x19	; 25
    25d0:	73 e4       	ldi	r23, 0x43	; 67
    25d2:	89 e0       	ldi	r24, 0x09	; 9
    25d4:	0e 94 43 01 	call	0x286	; 0x286 <reg_servo_angle>
    25d8:	40 e0       	ldi	r20, 0x00	; 0
    25da:	50 e0       	ldi	r21, 0x00	; 0
    25dc:	63 e6       	ldi	r22, 0x63	; 99
    25de:	73 e4       	ldi	r23, 0x43	; 67
    25e0:	8a e0       	ldi	r24, 0x0A	; 10
    25e2:	0e 94 43 01 	call	0x286	; 0x286 <reg_servo_angle>
    25e6:	40 e0       	ldi	r20, 0x00	; 0
    25e8:	50 e0       	ldi	r21, 0x00	; 0
    25ea:	68 e7       	ldi	r22, 0x78	; 120
    25ec:	72 e4       	ldi	r23, 0x42	; 66
    25ee:	8b e0       	ldi	r24, 0x0B	; 11
    25f0:	0e 94 43 01 	call	0x286	; 0x286 <reg_servo_angle>
    25f4:	40 e0       	ldi	r20, 0x00	; 0
    25f6:	50 e0       	ldi	r21, 0x00	; 0
    25f8:	6e e0       	ldi	r22, 0x0E	; 14
    25fa:	73 e4       	ldi	r23, 0x43	; 67
    25fc:	83 e0       	ldi	r24, 0x03	; 3
    25fe:	0e 94 43 01 	call	0x286	; 0x286 <reg_servo_angle>
    2602:	40 e0       	ldi	r20, 0x00	; 0
    2604:	50 e0       	ldi	r21, 0x00	; 0
    2606:	66 e9       	ldi	r22, 0x96	; 150
    2608:	72 e4       	ldi	r23, 0x42	; 66
    260a:	84 e0       	ldi	r24, 0x04	; 4
    260c:	0e 94 43 01 	call	0x286	; 0x286 <reg_servo_angle>
    2610:	40 e0       	ldi	r20, 0x00	; 0
    2612:	50 e0       	ldi	r21, 0x00	; 0
    2614:	6c e6       	ldi	r22, 0x6C	; 108
    2616:	73 e4       	ldi	r23, 0x43	; 67
    2618:	85 e0       	ldi	r24, 0x05	; 5
    261a:	0e 94 43 01 	call	0x286	; 0x286 <reg_servo_angle>
    261e:	40 e0       	ldi	r20, 0x00	; 0
    2620:	50 e0       	ldi	r21, 0x00	; 0
    2622:	6e e0       	ldi	r22, 0x0E	; 14
    2624:	73 e4       	ldi	r23, 0x43	; 67
    2626:	8c e0       	ldi	r24, 0x0C	; 12
    2628:	0e 94 43 01 	call	0x286	; 0x286 <reg_servo_angle>
    262c:	40 e0       	ldi	r20, 0x00	; 0
    262e:	50 e0       	ldi	r21, 0x00	; 0
    2630:	6f e4       	ldi	r22, 0x4F	; 79
    2632:	73 e4       	ldi	r23, 0x43	; 67
    2634:	8d e0       	ldi	r24, 0x0D	; 13
    2636:	0e 94 43 01 	call	0x286	; 0x286 <reg_servo_angle>
    263a:	40 e0       	ldi	r20, 0x00	; 0
    263c:	50 e0       	ldi	r21, 0x00	; 0
    263e:	64 e9       	ldi	r22, 0x94	; 148
    2640:	72 e4       	ldi	r23, 0x42	; 66
    2642:	8e e0       	ldi	r24, 0x0E	; 14
    2644:	0e 94 43 01 	call	0x286	; 0x286 <reg_servo_angle>
    2648:	40 e0       	ldi	r20, 0x00	; 0
    264a:	50 e0       	ldi	r21, 0x00	; 0
    264c:	69 e1       	ldi	r22, 0x19	; 25
    264e:	73 e4       	ldi	r23, 0x43	; 67
    2650:	80 e0       	ldi	r24, 0x00	; 0
    2652:	0e 94 43 01 	call	0x286	; 0x286 <reg_servo_angle>
    2656:	40 e0       	ldi	r20, 0x00	; 0
    2658:	50 e0       	ldi	r21, 0x00	; 0
    265a:	68 eb       	ldi	r22, 0xB8	; 184
    265c:	72 e4       	ldi	r23, 0x42	; 66
    265e:	81 e0       	ldi	r24, 0x01	; 1
    2660:	0e 94 43 01 	call	0x286	; 0x286 <reg_servo_angle>
    2664:	40 e0       	ldi	r20, 0x00	; 0
    2666:	50 e0       	ldi	r21, 0x00	; 0
    2668:	63 e6       	ldi	r22, 0x63	; 99
    266a:	73 e4       	ldi	r23, 0x43	; 67
    266c:	82 e0       	ldi	r24, 0x02	; 2
    266e:	0e 94 43 01 	call	0x286	; 0x286 <reg_servo_angle>
    2672:	40 e0       	ldi	r20, 0x00	; 0
    2674:	50 e0       	ldi	r21, 0x00	; 0
    2676:	6d e1       	ldi	r22, 0x1D	; 29
    2678:	73 e4       	ldi	r23, 0x43	; 67
    267a:	8f e0       	ldi	r24, 0x0F	; 15
    267c:	0e 94 43 01 	call	0x286	; 0x286 <reg_servo_angle>
    2680:	40 e0       	ldi	r20, 0x00	; 0
    2682:	50 e0       	ldi	r21, 0x00	; 0
    2684:	64 e5       	ldi	r22, 0x54	; 84
    2686:	73 e4       	ldi	r23, 0x43	; 67
    2688:	80 e1       	ldi	r24, 0x10	; 16
    268a:	0e 94 43 01 	call	0x286	; 0x286 <reg_servo_angle>
    268e:	40 e0       	ldi	r20, 0x00	; 0
    2690:	50 e0       	ldi	r21, 0x00	; 0
    2692:	6a ea       	ldi	r22, 0xAA	; 170
    2694:	72 e4       	ldi	r23, 0x42	; 66
    2696:	81 e1       	ldi	r24, 0x11	; 17
    2698:	0e 94 43 01 	call	0x286	; 0x286 <reg_servo_angle>
    269c:	2f ef       	ldi	r18, 0xFF	; 255
    269e:	87 ee       	ldi	r24, 0xE7	; 231
    26a0:	93 e0       	ldi	r25, 0x03	; 3
    26a2:	21 50       	subi	r18, 0x01	; 1
    26a4:	80 40       	sbci	r24, 0x00	; 0
    26a6:	90 40       	sbci	r25, 0x00	; 0
    26a8:	e1 f7       	brne	.-8      	; 0x26a2 <one_forward_right+0x102>
    26aa:	00 c0       	rjmp	.+0      	; 0x26ac <one_forward_right+0x10c>
    26ac:	00 00       	nop
    26ae:	0c 94 b3 01 	jmp	0x366	; 0x366 <action>
    26b2:	08 95       	ret

000026b4 <two_forward_right>:
    26b4:	40 e0       	ldi	r20, 0x00	; 0
    26b6:	50 e0       	ldi	r21, 0x00	; 0
    26b8:	66 e1       	ldi	r22, 0x16	; 22
    26ba:	73 e4       	ldi	r23, 0x43	; 67
    26bc:	86 e0       	ldi	r24, 0x06	; 6
    26be:	0e 94 43 01 	call	0x286	; 0x286 <reg_servo_angle>
    26c2:	40 e0       	ldi	r20, 0x00	; 0
    26c4:	50 e0       	ldi	r21, 0x00	; 0
    26c6:	68 ec       	ldi	r22, 0xC8	; 200
    26c8:	72 e4       	ldi	r23, 0x42	; 66
    26ca:	87 e0       	ldi	r24, 0x07	; 7
    26cc:	0e 94 43 01 	call	0x286	; 0x286 <reg_servo_angle>
    26d0:	40 e0       	ldi	r20, 0x00	; 0
    26d2:	50 e0       	ldi	r21, 0x00	; 0
    26d4:	64 e5       	ldi	r22, 0x54	; 84
    26d6:	73 e4       	ldi	r23, 0x43	; 67
    26d8:	88 e0       	ldi	r24, 0x08	; 8
    26da:	0e 94 43 01 	call	0x286	; 0x286 <reg_servo_angle>
    26de:	40 e0       	ldi	r20, 0x00	; 0
    26e0:	50 e0       	ldi	r21, 0x00	; 0
    26e2:	61 e1       	ldi	r22, 0x11	; 17
    26e4:	73 e4       	ldi	r23, 0x43	; 67
    26e6:	89 e0       	ldi	r24, 0x09	; 9
    26e8:	0e 94 43 01 	call	0x286	; 0x286 <reg_servo_angle>
    26ec:	40 e0       	ldi	r20, 0x00	; 0
    26ee:	50 e0       	ldi	r21, 0x00	; 0
    26f0:	6f e5       	ldi	r22, 0x5F	; 95
    26f2:	73 e4       	ldi	r23, 0x43	; 67
    26f4:	8a e0       	ldi	r24, 0x0A	; 10
    26f6:	0e 94 43 01 	call	0x286	; 0x286 <reg_servo_angle>
    26fa:	40 e0       	ldi	r20, 0x00	; 0
    26fc:	50 e0       	ldi	r21, 0x00	; 0
    26fe:	68 e8       	ldi	r22, 0x88	; 136
    2700:	72 e4       	ldi	r23, 0x42	; 66
    2702:	8b e0       	ldi	r24, 0x0B	; 11
    2704:	0e 94 43 01 	call	0x286	; 0x286 <reg_servo_angle>
    2708:	40 e0       	ldi	r20, 0x00	; 0
    270a:	50 e0       	ldi	r21, 0x00	; 0
    270c:	66 e1       	ldi	r22, 0x16	; 22
    270e:	73 e4       	ldi	r23, 0x43	; 67
    2710:	83 e0       	ldi	r24, 0x03	; 3
    2712:	0e 94 43 01 	call	0x286	; 0x286 <reg_servo_angle>
    2716:	40 e0       	ldi	r20, 0x00	; 0
    2718:	50 e0       	ldi	r21, 0x00	; 0
    271a:	64 e9       	ldi	r22, 0x94	; 148
    271c:	72 e4       	ldi	r23, 0x42	; 66
    271e:	84 e0       	ldi	r24, 0x04	; 4
    2720:	0e 94 43 01 	call	0x286	; 0x286 <reg_servo_angle>
    2724:	40 e0       	ldi	r20, 0x00	; 0
    2726:	50 e0       	ldi	r21, 0x00	; 0
    2728:	6d e6       	ldi	r22, 0x6D	; 109
    272a:	73 e4       	ldi	r23, 0x43	; 67
    272c:	85 e0       	ldi	r24, 0x05	; 5
    272e:	0e 94 43 01 	call	0x286	; 0x286 <reg_servo_angle>
    2732:	40 e0       	ldi	r20, 0x00	; 0
    2734:	50 e0       	ldi	r21, 0x00	; 0
    2736:	66 e1       	ldi	r22, 0x16	; 22
    2738:	73 e4       	ldi	r23, 0x43	; 67
    273a:	8c e0       	ldi	r24, 0x0C	; 12
    273c:	0e 94 43 01 	call	0x286	; 0x286 <reg_servo_angle>
    2740:	40 e0       	ldi	r20, 0x00	; 0
    2742:	50 e0       	ldi	r21, 0x00	; 0
    2744:	60 e5       	ldi	r22, 0x50	; 80
    2746:	73 e4       	ldi	r23, 0x43	; 67
    2748:	8d e0       	ldi	r24, 0x0D	; 13
    274a:	0e 94 43 01 	call	0x286	; 0x286 <reg_servo_angle>
    274e:	40 e0       	ldi	r20, 0x00	; 0
    2750:	50 e0       	ldi	r21, 0x00	; 0
    2752:	62 e9       	ldi	r22, 0x92	; 146
    2754:	72 e4       	ldi	r23, 0x42	; 66
    2756:	8e e0       	ldi	r24, 0x0E	; 14
    2758:	0e 94 43 01 	call	0x286	; 0x286 <reg_servo_angle>
    275c:	40 e0       	ldi	r20, 0x00	; 0
    275e:	50 e0       	ldi	r21, 0x00	; 0
    2760:	64 e1       	ldi	r22, 0x14	; 20
    2762:	73 e4       	ldi	r23, 0x43	; 67
    2764:	80 e0       	ldi	r24, 0x00	; 0
    2766:	0e 94 43 01 	call	0x286	; 0x286 <reg_servo_angle>
    276a:	40 e0       	ldi	r20, 0x00	; 0
    276c:	50 e0       	ldi	r21, 0x00	; 0
    276e:	62 ec       	ldi	r22, 0xC2	; 194
    2770:	72 e4       	ldi	r23, 0x42	; 66
    2772:	81 e0       	ldi	r24, 0x01	; 1
    2774:	0e 94 43 01 	call	0x286	; 0x286 <reg_servo_angle>
    2778:	40 e0       	ldi	r20, 0x00	; 0
    277a:	50 e0       	ldi	r21, 0x00	; 0
    277c:	6a e5       	ldi	r22, 0x5A	; 90
    277e:	73 e4       	ldi	r23, 0x43	; 67
    2780:	82 e0       	ldi	r24, 0x02	; 2
    2782:	0e 94 43 01 	call	0x286	; 0x286 <reg_servo_angle>
    2786:	40 e0       	ldi	r20, 0x00	; 0
    2788:	50 e0       	ldi	r21, 0x00	; 0
    278a:	68 e1       	ldi	r22, 0x18	; 24
    278c:	73 e4       	ldi	r23, 0x43	; 67
    278e:	8f e0       	ldi	r24, 0x0F	; 15
    2790:	0e 94 43 01 	call	0x286	; 0x286 <reg_servo_angle>
    2794:	40 e0       	ldi	r20, 0x00	; 0
    2796:	50 e0       	ldi	r21, 0x00	; 0
    2798:	6c e5       	ldi	r22, 0x5C	; 92
    279a:	73 e4       	ldi	r23, 0x43	; 67
    279c:	80 e1       	ldi	r24, 0x10	; 16
    279e:	0e 94 43 01 	call	0x286	; 0x286 <reg_servo_angle>
    27a2:	40 e0       	ldi	r20, 0x00	; 0
    27a4:	50 e0       	ldi	r21, 0x00	; 0
    27a6:	62 e9       	ldi	r22, 0x92	; 146
    27a8:	72 e4       	ldi	r23, 0x42	; 66
    27aa:	81 e1       	ldi	r24, 0x11	; 17
    27ac:	0e 94 43 01 	call	0x286	; 0x286 <reg_servo_angle>
    27b0:	2f ef       	ldi	r18, 0xFF	; 255
    27b2:	87 ee       	ldi	r24, 0xE7	; 231
    27b4:	93 e0       	ldi	r25, 0x03	; 3
    27b6:	21 50       	subi	r18, 0x01	; 1
    27b8:	80 40       	sbci	r24, 0x00	; 0
    27ba:	90 40       	sbci	r25, 0x00	; 0
    27bc:	e1 f7       	brne	.-8      	; 0x27b6 <two_forward_right+0x102>
    27be:	00 c0       	rjmp	.+0      	; 0x27c0 <two_forward_right+0x10c>
    27c0:	00 00       	nop
    27c2:	0c 94 b3 01 	jmp	0x366	; 0x366 <action>
    27c6:	08 95       	ret

000027c8 <three_forward_right>:
    27c8:	40 e0       	ldi	r20, 0x00	; 0
    27ca:	50 e0       	ldi	r21, 0x00	; 0
    27cc:	63 e1       	ldi	r22, 0x13	; 19
    27ce:	73 e4       	ldi	r23, 0x43	; 67
    27d0:	86 e0       	ldi	r24, 0x06	; 6
    27d2:	0e 94 43 01 	call	0x286	; 0x286 <reg_servo_angle>
    27d6:	40 e0       	ldi	r20, 0x00	; 0
    27d8:	50 e0       	ldi	r21, 0x00	; 0
    27da:	68 eb       	ldi	r22, 0xB8	; 184
    27dc:	72 e4       	ldi	r23, 0x42	; 66
    27de:	87 e0       	ldi	r24, 0x07	; 7
    27e0:	0e 94 43 01 	call	0x286	; 0x286 <reg_servo_angle>
    27e4:	40 e0       	ldi	r20, 0x00	; 0
    27e6:	50 e0       	ldi	r21, 0x00	; 0
    27e8:	63 e6       	ldi	r22, 0x63	; 99
    27ea:	73 e4       	ldi	r23, 0x43	; 67
    27ec:	88 e0       	ldi	r24, 0x08	; 8
    27ee:	0e 94 43 01 	call	0x286	; 0x286 <reg_servo_angle>
    27f2:	40 e0       	ldi	r20, 0x00	; 0
    27f4:	50 e0       	ldi	r21, 0x00	; 0
    27f6:	6a e0       	ldi	r22, 0x0A	; 10
    27f8:	73 e4       	ldi	r23, 0x43	; 67
    27fa:	89 e0       	ldi	r24, 0x09	; 9
    27fc:	0e 94 43 01 	call	0x286	; 0x286 <reg_servo_angle>
    2800:	40 e0       	ldi	r20, 0x00	; 0
    2802:	50 e0       	ldi	r21, 0x00	; 0
    2804:	6a e5       	ldi	r22, 0x5A	; 90
    2806:	73 e4       	ldi	r23, 0x43	; 67
    2808:	8a e0       	ldi	r24, 0x0A	; 10
    280a:	0e 94 43 01 	call	0x286	; 0x286 <reg_servo_angle>
    280e:	40 e0       	ldi	r20, 0x00	; 0
    2810:	50 e0       	ldi	r21, 0x00	; 0
    2812:	66 e9       	ldi	r22, 0x96	; 150
    2814:	72 e4       	ldi	r23, 0x42	; 66
    2816:	8b e0       	ldi	r24, 0x0B	; 11
    2818:	0e 94 43 01 	call	0x286	; 0x286 <reg_servo_angle>
    281c:	40 e0       	ldi	r20, 0x00	; 0
    281e:	50 e0       	ldi	r21, 0x00	; 0
    2820:	6e e1       	ldi	r22, 0x1E	; 30
    2822:	73 e4       	ldi	r23, 0x43	; 67
    2824:	83 e0       	ldi	r24, 0x03	; 3
    2826:	0e 94 43 01 	call	0x286	; 0x286 <reg_servo_angle>
    282a:	40 e0       	ldi	r20, 0x00	; 0
    282c:	50 e0       	ldi	r21, 0x00	; 0
    282e:	66 e9       	ldi	r22, 0x96	; 150
    2830:	72 e4       	ldi	r23, 0x42	; 66
    2832:	84 e0       	ldi	r24, 0x04	; 4
    2834:	0e 94 43 01 	call	0x286	; 0x286 <reg_servo_angle>
    2838:	40 e0       	ldi	r20, 0x00	; 0
    283a:	50 e0       	ldi	r21, 0x00	; 0
    283c:	6c e6       	ldi	r22, 0x6C	; 108
    283e:	73 e4       	ldi	r23, 0x43	; 67
    2840:	85 e0       	ldi	r24, 0x05	; 5
    2842:	0e 94 43 01 	call	0x286	; 0x286 <reg_servo_angle>
    2846:	40 e0       	ldi	r20, 0x00	; 0
    2848:	50 e0       	ldi	r21, 0x00	; 0
    284a:	6e e1       	ldi	r22, 0x1E	; 30
    284c:	73 e4       	ldi	r23, 0x43	; 67
    284e:	8c e0       	ldi	r24, 0x0C	; 12
    2850:	0e 94 43 01 	call	0x286	; 0x286 <reg_servo_angle>
    2854:	40 e0       	ldi	r20, 0x00	; 0
    2856:	50 e0       	ldi	r21, 0x00	; 0
    2858:	6f e4       	ldi	r22, 0x4F	; 79
    285a:	73 e4       	ldi	r23, 0x43	; 67
    285c:	8d e0       	ldi	r24, 0x0D	; 13
    285e:	0e 94 43 01 	call	0x286	; 0x286 <reg_servo_angle>
    2862:	40 e0       	ldi	r20, 0x00	; 0
    2864:	50 e0       	ldi	r21, 0x00	; 0
    2866:	64 e9       	ldi	r22, 0x94	; 148
    2868:	72 e4       	ldi	r23, 0x42	; 66
    286a:	8e e0       	ldi	r24, 0x0E	; 14
    286c:	0e 94 43 01 	call	0x286	; 0x286 <reg_servo_angle>
    2870:	40 e0       	ldi	r20, 0x00	; 0
    2872:	50 e0       	ldi	r21, 0x00	; 0
    2874:	6f e0       	ldi	r22, 0x0F	; 15
    2876:	73 e4       	ldi	r23, 0x43	; 67
    2878:	80 e0       	ldi	r24, 0x00	; 0
    287a:	0e 94 43 01 	call	0x286	; 0x286 <reg_servo_angle>
    287e:	40 e0       	ldi	r20, 0x00	; 0
    2880:	50 e0       	ldi	r21, 0x00	; 0
    2882:	6e ec       	ldi	r22, 0xCE	; 206
    2884:	72 e4       	ldi	r23, 0x42	; 66
    2886:	81 e0       	ldi	r24, 0x01	; 1
    2888:	0e 94 43 01 	call	0x286	; 0x286 <reg_servo_angle>
    288c:	40 e0       	ldi	r20, 0x00	; 0
    288e:	50 e0       	ldi	r21, 0x00	; 0
    2890:	6e e4       	ldi	r22, 0x4E	; 78
    2892:	73 e4       	ldi	r23, 0x43	; 67
    2894:	82 e0       	ldi	r24, 0x02	; 2
    2896:	0e 94 43 01 	call	0x286	; 0x286 <reg_servo_angle>
    289a:	40 e0       	ldi	r20, 0x00	; 0
    289c:	50 e0       	ldi	r21, 0x00	; 0
    289e:	63 e1       	ldi	r22, 0x13	; 19
    28a0:	73 e4       	ldi	r23, 0x43	; 67
    28a2:	8f e0       	ldi	r24, 0x0F	; 15
    28a4:	0e 94 43 01 	call	0x286	; 0x286 <reg_servo_angle>
    28a8:	40 e0       	ldi	r20, 0x00	; 0
    28aa:	50 e0       	ldi	r21, 0x00	; 0
    28ac:	63 e6       	ldi	r22, 0x63	; 99
    28ae:	73 e4       	ldi	r23, 0x43	; 67
    28b0:	80 e1       	ldi	r24, 0x10	; 16
    28b2:	0e 94 43 01 	call	0x286	; 0x286 <reg_servo_angle>
    28b6:	40 e0       	ldi	r20, 0x00	; 0
    28b8:	50 e0       	ldi	r21, 0x00	; 0
    28ba:	68 e7       	ldi	r22, 0x78	; 120
    28bc:	72 e4       	ldi	r23, 0x42	; 66
    28be:	81 e1       	ldi	r24, 0x11	; 17
    28c0:	0e 94 43 01 	call	0x286	; 0x286 <reg_servo_angle>
    28c4:	2f ef       	ldi	r18, 0xFF	; 255
    28c6:	87 ee       	ldi	r24, 0xE7	; 231
    28c8:	93 e0       	ldi	r25, 0x03	; 3
    28ca:	21 50       	subi	r18, 0x01	; 1
    28cc:	80 40       	sbci	r24, 0x00	; 0
    28ce:	90 40       	sbci	r25, 0x00	; 0
    28d0:	e1 f7       	brne	.-8      	; 0x28ca <three_forward_right+0x102>
    28d2:	00 c0       	rjmp	.+0      	; 0x28d4 <three_forward_right+0x10c>
    28d4:	00 00       	nop
    28d6:	0c 94 b3 01 	jmp	0x366	; 0x366 <action>
    28da:	08 95       	ret

000028dc <four_forward_right>:
    28dc:	40 e0       	ldi	r20, 0x00	; 0
    28de:	50 e0       	ldi	r21, 0x00	; 0
    28e0:	63 e1       	ldi	r22, 0x13	; 19
    28e2:	73 e4       	ldi	r23, 0x43	; 67
    28e4:	86 e0       	ldi	r24, 0x06	; 6
    28e6:	0e 94 43 01 	call	0x286	; 0x286 <reg_servo_angle>
    28ea:	40 e0       	ldi	r20, 0x00	; 0
    28ec:	50 e0       	ldi	r21, 0x00	; 0
    28ee:	68 eb       	ldi	r22, 0xB8	; 184
    28f0:	72 e4       	ldi	r23, 0x42	; 66
    28f2:	87 e0       	ldi	r24, 0x07	; 7
    28f4:	0e 94 43 01 	call	0x286	; 0x286 <reg_servo_angle>
    28f8:	40 e0       	ldi	r20, 0x00	; 0
    28fa:	50 e0       	ldi	r21, 0x00	; 0
    28fc:	63 e6       	ldi	r22, 0x63	; 99
    28fe:	73 e4       	ldi	r23, 0x43	; 67
    2900:	88 e0       	ldi	r24, 0x08	; 8
    2902:	0e 94 43 01 	call	0x286	; 0x286 <reg_servo_angle>
    2906:	40 e0       	ldi	r20, 0x00	; 0
    2908:	50 e0       	ldi	r21, 0x00	; 0
    290a:	6a e0       	ldi	r22, 0x0A	; 10
    290c:	73 e4       	ldi	r23, 0x43	; 67
    290e:	89 e0       	ldi	r24, 0x09	; 9
    2910:	0e 94 43 01 	call	0x286	; 0x286 <reg_servo_angle>
    2914:	40 e0       	ldi	r20, 0x00	; 0
    2916:	50 e0       	ldi	r21, 0x00	; 0
    2918:	6a e4       	ldi	r22, 0x4A	; 74
    291a:	73 e4       	ldi	r23, 0x43	; 67
    291c:	8a e0       	ldi	r24, 0x0A	; 10
    291e:	0e 94 43 01 	call	0x286	; 0x286 <reg_servo_angle>
    2922:	40 e0       	ldi	r20, 0x00	; 0
    2924:	50 e0       	ldi	r21, 0x00	; 0
    2926:	6a ea       	ldi	r22, 0xAA	; 170
    2928:	72 e4       	ldi	r23, 0x42	; 66
    292a:	8b e0       	ldi	r24, 0x0B	; 11
    292c:	0e 94 43 01 	call	0x286	; 0x286 <reg_servo_angle>
    2930:	40 e0       	ldi	r20, 0x00	; 0
    2932:	50 e0       	ldi	r21, 0x00	; 0
    2934:	6e e1       	ldi	r22, 0x1E	; 30
    2936:	73 e4       	ldi	r23, 0x43	; 67
    2938:	83 e0       	ldi	r24, 0x03	; 3
    293a:	0e 94 43 01 	call	0x286	; 0x286 <reg_servo_angle>
    293e:	40 e0       	ldi	r20, 0x00	; 0
    2940:	50 e0       	ldi	r21, 0x00	; 0
    2942:	6a eb       	ldi	r22, 0xBA	; 186
    2944:	72 e4       	ldi	r23, 0x42	; 66
    2946:	84 e0       	ldi	r24, 0x04	; 4
    2948:	0e 94 43 01 	call	0x286	; 0x286 <reg_servo_angle>
    294c:	40 e0       	ldi	r20, 0x00	; 0
    294e:	50 e0       	ldi	r21, 0x00	; 0
    2950:	62 e6       	ldi	r22, 0x62	; 98
    2952:	73 e4       	ldi	r23, 0x43	; 67
    2954:	85 e0       	ldi	r24, 0x05	; 5
    2956:	0e 94 43 01 	call	0x286	; 0x286 <reg_servo_angle>
    295a:	40 e0       	ldi	r20, 0x00	; 0
    295c:	50 e0       	ldi	r21, 0x00	; 0
    295e:	6e e1       	ldi	r22, 0x1E	; 30
    2960:	73 e4       	ldi	r23, 0x43	; 67
    2962:	8c e0       	ldi	r24, 0x0C	; 12
    2964:	0e 94 43 01 	call	0x286	; 0x286 <reg_servo_angle>
    2968:	40 e0       	ldi	r20, 0x00	; 0
    296a:	50 e0       	ldi	r21, 0x00	; 0
    296c:	6f e4       	ldi	r22, 0x4F	; 79
    296e:	73 e4       	ldi	r23, 0x43	; 67
    2970:	8d e0       	ldi	r24, 0x0D	; 13
    2972:	0e 94 43 01 	call	0x286	; 0x286 <reg_servo_angle>
    2976:	40 e0       	ldi	r20, 0x00	; 0
    2978:	50 e0       	ldi	r21, 0x00	; 0
    297a:	64 e9       	ldi	r22, 0x94	; 148
    297c:	72 e4       	ldi	r23, 0x42	; 66
    297e:	8e e0       	ldi	r24, 0x0E	; 14
    2980:	0e 94 43 01 	call	0x286	; 0x286 <reg_servo_angle>
    2984:	40 e0       	ldi	r20, 0x00	; 0
    2986:	50 e0       	ldi	r21, 0x00	; 0
    2988:	6f e0       	ldi	r22, 0x0F	; 15
    298a:	73 e4       	ldi	r23, 0x43	; 67
    298c:	80 e0       	ldi	r24, 0x00	; 0
    298e:	0e 94 43 01 	call	0x286	; 0x286 <reg_servo_angle>
    2992:	40 e0       	ldi	r20, 0x00	; 0
    2994:	50 e0       	ldi	r21, 0x00	; 0
    2996:	6e ec       	ldi	r22, 0xCE	; 206
    2998:	72 e4       	ldi	r23, 0x42	; 66
    299a:	81 e0       	ldi	r24, 0x01	; 1
    299c:	0e 94 43 01 	call	0x286	; 0x286 <reg_servo_angle>
    29a0:	40 e0       	ldi	r20, 0x00	; 0
    29a2:	50 e0       	ldi	r21, 0x00	; 0
    29a4:	6e e4       	ldi	r22, 0x4E	; 78
    29a6:	73 e4       	ldi	r23, 0x43	; 67
    29a8:	82 e0       	ldi	r24, 0x02	; 2
    29aa:	0e 94 43 01 	call	0x286	; 0x286 <reg_servo_angle>
    29ae:	40 e0       	ldi	r20, 0x00	; 0
    29b0:	50 e0       	ldi	r21, 0x00	; 0
    29b2:	63 e1       	ldi	r22, 0x13	; 19
    29b4:	73 e4       	ldi	r23, 0x43	; 67
    29b6:	8f e0       	ldi	r24, 0x0F	; 15
    29b8:	0e 94 43 01 	call	0x286	; 0x286 <reg_servo_angle>
    29bc:	40 e0       	ldi	r20, 0x00	; 0
    29be:	50 e0       	ldi	r21, 0x00	; 0
    29c0:	60 e5       	ldi	r22, 0x50	; 80
    29c2:	73 e4       	ldi	r23, 0x43	; 67
    29c4:	80 e1       	ldi	r24, 0x10	; 16
    29c6:	0e 94 43 01 	call	0x286	; 0x286 <reg_servo_angle>
    29ca:	40 e0       	ldi	r20, 0x00	; 0
    29cc:	50 e0       	ldi	r21, 0x00	; 0
    29ce:	62 e9       	ldi	r22, 0x92	; 146
    29d0:	72 e4       	ldi	r23, 0x42	; 66
    29d2:	81 e1       	ldi	r24, 0x11	; 17
    29d4:	0e 94 43 01 	call	0x286	; 0x286 <reg_servo_angle>
    29d8:	2f ef       	ldi	r18, 0xFF	; 255
    29da:	87 ee       	ldi	r24, 0xE7	; 231
    29dc:	93 e0       	ldi	r25, 0x03	; 3
    29de:	21 50       	subi	r18, 0x01	; 1
    29e0:	80 40       	sbci	r24, 0x00	; 0
    29e2:	90 40       	sbci	r25, 0x00	; 0
    29e4:	e1 f7       	brne	.-8      	; 0x29de <four_forward_right+0x102>
    29e6:	00 c0       	rjmp	.+0      	; 0x29e8 <four_forward_right+0x10c>
    29e8:	00 00       	nop
    29ea:	0c 94 b3 01 	jmp	0x366	; 0x366 <action>
    29ee:	08 95       	ret

000029f0 <five_forward_right>:
    29f0:	40 e0       	ldi	r20, 0x00	; 0
    29f2:	50 e0       	ldi	r21, 0x00	; 0
    29f4:	63 e1       	ldi	r22, 0x13	; 19
    29f6:	73 e4       	ldi	r23, 0x43	; 67
    29f8:	86 e0       	ldi	r24, 0x06	; 6
    29fa:	0e 94 43 01 	call	0x286	; 0x286 <reg_servo_angle>
    29fe:	40 e0       	ldi	r20, 0x00	; 0
    2a00:	50 e0       	ldi	r21, 0x00	; 0
    2a02:	62 e9       	ldi	r22, 0x92	; 146
    2a04:	72 e4       	ldi	r23, 0x42	; 66
    2a06:	87 e0       	ldi	r24, 0x07	; 7
    2a08:	0e 94 43 01 	call	0x286	; 0x286 <reg_servo_angle>
    2a0c:	40 e0       	ldi	r20, 0x00	; 0
    2a0e:	50 e0       	ldi	r21, 0x00	; 0
    2a10:	6e e6       	ldi	r22, 0x6E	; 110
    2a12:	73 e4       	ldi	r23, 0x43	; 67
    2a14:	88 e0       	ldi	r24, 0x08	; 8
    2a16:	0e 94 43 01 	call	0x286	; 0x286 <reg_servo_angle>
    2a1a:	40 e0       	ldi	r20, 0x00	; 0
    2a1c:	50 e0       	ldi	r21, 0x00	; 0
    2a1e:	6a e0       	ldi	r22, 0x0A	; 10
    2a20:	73 e4       	ldi	r23, 0x43	; 67
    2a22:	89 e0       	ldi	r24, 0x09	; 9
    2a24:	0e 94 43 01 	call	0x286	; 0x286 <reg_servo_angle>
    2a28:	40 e0       	ldi	r20, 0x00	; 0
    2a2a:	50 e0       	ldi	r21, 0x00	; 0
    2a2c:	6a e4       	ldi	r22, 0x4A	; 74
    2a2e:	73 e4       	ldi	r23, 0x43	; 67
    2a30:	8a e0       	ldi	r24, 0x0A	; 10
    2a32:	0e 94 43 01 	call	0x286	; 0x286 <reg_servo_angle>
    2a36:	40 e0       	ldi	r20, 0x00	; 0
    2a38:	50 e0       	ldi	r21, 0x00	; 0
    2a3a:	6a ea       	ldi	r22, 0xAA	; 170
    2a3c:	72 e4       	ldi	r23, 0x42	; 66
    2a3e:	8b e0       	ldi	r24, 0x0B	; 11
    2a40:	0e 94 43 01 	call	0x286	; 0x286 <reg_servo_angle>
    2a44:	40 e0       	ldi	r20, 0x00	; 0
    2a46:	50 e0       	ldi	r21, 0x00	; 0
    2a48:	6e e1       	ldi	r22, 0x1E	; 30
    2a4a:	73 e4       	ldi	r23, 0x43	; 67
    2a4c:	83 e0       	ldi	r24, 0x03	; 3
    2a4e:	0e 94 43 01 	call	0x286	; 0x286 <reg_servo_angle>
    2a52:	40 e0       	ldi	r20, 0x00	; 0
    2a54:	50 e0       	ldi	r21, 0x00	; 0
    2a56:	6a eb       	ldi	r22, 0xBA	; 186
    2a58:	72 e4       	ldi	r23, 0x42	; 66
    2a5a:	84 e0       	ldi	r24, 0x04	; 4
    2a5c:	0e 94 43 01 	call	0x286	; 0x286 <reg_servo_angle>
    2a60:	40 e0       	ldi	r20, 0x00	; 0
    2a62:	50 e0       	ldi	r21, 0x00	; 0
    2a64:	62 e6       	ldi	r22, 0x62	; 98
    2a66:	73 e4       	ldi	r23, 0x43	; 67
    2a68:	85 e0       	ldi	r24, 0x05	; 5
    2a6a:	0e 94 43 01 	call	0x286	; 0x286 <reg_servo_angle>
    2a6e:	40 e0       	ldi	r20, 0x00	; 0
    2a70:	50 e0       	ldi	r21, 0x00	; 0
    2a72:	6e e1       	ldi	r22, 0x1E	; 30
    2a74:	73 e4       	ldi	r23, 0x43	; 67
    2a76:	8c e0       	ldi	r24, 0x0C	; 12
    2a78:	0e 94 43 01 	call	0x286	; 0x286 <reg_servo_angle>
    2a7c:	40 e0       	ldi	r20, 0x00	; 0
    2a7e:	50 e0       	ldi	r21, 0x00	; 0
    2a80:	61 e6       	ldi	r22, 0x61	; 97
    2a82:	73 e4       	ldi	r23, 0x43	; 67
    2a84:	8d e0       	ldi	r24, 0x0D	; 13
    2a86:	0e 94 43 01 	call	0x286	; 0x286 <reg_servo_angle>
    2a8a:	40 e0       	ldi	r20, 0x00	; 0
    2a8c:	50 e0       	ldi	r21, 0x00	; 0
    2a8e:	60 e8       	ldi	r22, 0x80	; 128
    2a90:	72 e4       	ldi	r23, 0x42	; 66
    2a92:	8e e0       	ldi	r24, 0x0E	; 14
    2a94:	0e 94 43 01 	call	0x286	; 0x286 <reg_servo_angle>
    2a98:	40 e0       	ldi	r20, 0x00	; 0
    2a9a:	50 e0       	ldi	r21, 0x00	; 0
    2a9c:	6f e0       	ldi	r22, 0x0F	; 15
    2a9e:	73 e4       	ldi	r23, 0x43	; 67
    2aa0:	80 e0       	ldi	r24, 0x00	; 0
    2aa2:	0e 94 43 01 	call	0x286	; 0x286 <reg_servo_angle>
    2aa6:	40 e0       	ldi	r20, 0x00	; 0
    2aa8:	50 e0       	ldi	r21, 0x00	; 0
    2aaa:	60 eb       	ldi	r22, 0xB0	; 176
    2aac:	72 e4       	ldi	r23, 0x42	; 66
    2aae:	81 e0       	ldi	r24, 0x01	; 1
    2ab0:	0e 94 43 01 	call	0x286	; 0x286 <reg_servo_angle>
    2ab4:	40 e0       	ldi	r20, 0x00	; 0
    2ab6:	50 e0       	ldi	r21, 0x00	; 0
    2ab8:	67 e5       	ldi	r22, 0x57	; 87
    2aba:	73 e4       	ldi	r23, 0x43	; 67
    2abc:	82 e0       	ldi	r24, 0x02	; 2
    2abe:	0e 94 43 01 	call	0x286	; 0x286 <reg_servo_angle>
    2ac2:	40 e0       	ldi	r20, 0x00	; 0
    2ac4:	50 e0       	ldi	r21, 0x00	; 0
    2ac6:	63 e1       	ldi	r22, 0x13	; 19
    2ac8:	73 e4       	ldi	r23, 0x43	; 67
    2aca:	8f e0       	ldi	r24, 0x0F	; 15
    2acc:	0e 94 43 01 	call	0x286	; 0x286 <reg_servo_angle>
    2ad0:	40 e0       	ldi	r20, 0x00	; 0
    2ad2:	50 e0       	ldi	r21, 0x00	; 0
    2ad4:	60 e5       	ldi	r22, 0x50	; 80
    2ad6:	73 e4       	ldi	r23, 0x43	; 67
    2ad8:	80 e1       	ldi	r24, 0x10	; 16
    2ada:	0e 94 43 01 	call	0x286	; 0x286 <reg_servo_angle>
    2ade:	40 e0       	ldi	r20, 0x00	; 0
    2ae0:	50 e0       	ldi	r21, 0x00	; 0
    2ae2:	62 e9       	ldi	r22, 0x92	; 146
    2ae4:	72 e4       	ldi	r23, 0x42	; 66
    2ae6:	81 e1       	ldi	r24, 0x11	; 17
    2ae8:	0e 94 43 01 	call	0x286	; 0x286 <reg_servo_angle>
    2aec:	2f ef       	ldi	r18, 0xFF	; 255
    2aee:	87 ee       	ldi	r24, 0xE7	; 231
    2af0:	93 e0       	ldi	r25, 0x03	; 3
    2af2:	21 50       	subi	r18, 0x01	; 1
    2af4:	80 40       	sbci	r24, 0x00	; 0
    2af6:	90 40       	sbci	r25, 0x00	; 0
    2af8:	e1 f7       	brne	.-8      	; 0x2af2 <five_forward_right+0x102>
    2afa:	00 c0       	rjmp	.+0      	; 0x2afc <five_forward_right+0x10c>
    2afc:	00 00       	nop
    2afe:	0c 94 b3 01 	jmp	0x366	; 0x366 <action>
    2b02:	08 95       	ret

00002b04 <six_forward_right>:
    2b04:	40 e0       	ldi	r20, 0x00	; 0
    2b06:	50 e0       	ldi	r21, 0x00	; 0
    2b08:	66 e1       	ldi	r22, 0x16	; 22
    2b0a:	73 e4       	ldi	r23, 0x43	; 67
    2b0c:	86 e0       	ldi	r24, 0x06	; 6
    2b0e:	0e 94 43 01 	call	0x286	; 0x286 <reg_servo_angle>
    2b12:	40 e0       	ldi	r20, 0x00	; 0
    2b14:	50 e0       	ldi	r21, 0x00	; 0
    2b16:	68 ea       	ldi	r22, 0xA8	; 168
    2b18:	72 e4       	ldi	r23, 0x42	; 66
    2b1a:	87 e0       	ldi	r24, 0x07	; 7
    2b1c:	0e 94 43 01 	call	0x286	; 0x286 <reg_servo_angle>
    2b20:	40 e0       	ldi	r20, 0x00	; 0
    2b22:	50 e0       	ldi	r21, 0x00	; 0
    2b24:	6e e5       	ldi	r22, 0x5E	; 94
    2b26:	73 e4       	ldi	r23, 0x43	; 67
    2b28:	88 e0       	ldi	r24, 0x08	; 8
    2b2a:	0e 94 43 01 	call	0x286	; 0x286 <reg_servo_angle>
    2b2e:	40 e0       	ldi	r20, 0x00	; 0
    2b30:	50 e0       	ldi	r21, 0x00	; 0
    2b32:	61 e1       	ldi	r22, 0x11	; 17
    2b34:	73 e4       	ldi	r23, 0x43	; 67
    2b36:	89 e0       	ldi	r24, 0x09	; 9
    2b38:	0e 94 43 01 	call	0x286	; 0x286 <reg_servo_angle>
    2b3c:	40 e0       	ldi	r20, 0x00	; 0
    2b3e:	50 e0       	ldi	r21, 0x00	; 0
    2b40:	6e e4       	ldi	r22, 0x4E	; 78
    2b42:	73 e4       	ldi	r23, 0x43	; 67
    2b44:	8a e0       	ldi	r24, 0x0A	; 10
    2b46:	0e 94 43 01 	call	0x286	; 0x286 <reg_servo_angle>
    2b4a:	40 e0       	ldi	r20, 0x00	; 0
    2b4c:	50 e0       	ldi	r21, 0x00	; 0
    2b4e:	6c e9       	ldi	r22, 0x9C	; 156
    2b50:	72 e4       	ldi	r23, 0x42	; 66
    2b52:	8b e0       	ldi	r24, 0x0B	; 11
    2b54:	0e 94 43 01 	call	0x286	; 0x286 <reg_servo_angle>
    2b58:	40 e0       	ldi	r20, 0x00	; 0
    2b5a:	50 e0       	ldi	r21, 0x00	; 0
    2b5c:	66 e1       	ldi	r22, 0x16	; 22
    2b5e:	73 e4       	ldi	r23, 0x43	; 67
    2b60:	83 e0       	ldi	r24, 0x03	; 3
    2b62:	0e 94 43 01 	call	0x286	; 0x286 <reg_servo_angle>
    2b66:	40 e0       	ldi	r20, 0x00	; 0
    2b68:	50 e0       	ldi	r21, 0x00	; 0
    2b6a:	68 eb       	ldi	r22, 0xB8	; 184
    2b6c:	72 e4       	ldi	r23, 0x42	; 66
    2b6e:	84 e0       	ldi	r24, 0x04	; 4
    2b70:	0e 94 43 01 	call	0x286	; 0x286 <reg_servo_angle>
    2b74:	40 e0       	ldi	r20, 0x00	; 0
    2b76:	50 e0       	ldi	r21, 0x00	; 0
    2b78:	63 e6       	ldi	r22, 0x63	; 99
    2b7a:	73 e4       	ldi	r23, 0x43	; 67
    2b7c:	85 e0       	ldi	r24, 0x05	; 5
    2b7e:	0e 94 43 01 	call	0x286	; 0x286 <reg_servo_angle>
    2b82:	40 e0       	ldi	r20, 0x00	; 0
    2b84:	50 e0       	ldi	r21, 0x00	; 0
    2b86:	66 e1       	ldi	r22, 0x16	; 22
    2b88:	73 e4       	ldi	r23, 0x43	; 67
    2b8a:	8c e0       	ldi	r24, 0x0C	; 12
    2b8c:	0e 94 43 01 	call	0x286	; 0x286 <reg_servo_angle>
    2b90:	40 e0       	ldi	r20, 0x00	; 0
    2b92:	50 e0       	ldi	r21, 0x00	; 0
    2b94:	62 e6       	ldi	r22, 0x62	; 98
    2b96:	73 e4       	ldi	r23, 0x43	; 67
    2b98:	8d e0       	ldi	r24, 0x0D	; 13
    2b9a:	0e 94 43 01 	call	0x286	; 0x286 <reg_servo_angle>
    2b9e:	40 e0       	ldi	r20, 0x00	; 0
    2ba0:	50 e0       	ldi	r21, 0x00	; 0
    2ba2:	6c e7       	ldi	r22, 0x7C	; 124
    2ba4:	72 e4       	ldi	r23, 0x42	; 66
    2ba6:	8e e0       	ldi	r24, 0x0E	; 14
    2ba8:	0e 94 43 01 	call	0x286	; 0x286 <reg_servo_angle>
    2bac:	40 e0       	ldi	r20, 0x00	; 0
    2bae:	50 e0       	ldi	r21, 0x00	; 0
    2bb0:	64 e1       	ldi	r22, 0x14	; 20
    2bb2:	73 e4       	ldi	r23, 0x43	; 67
    2bb4:	80 e0       	ldi	r24, 0x00	; 0
    2bb6:	0e 94 43 01 	call	0x286	; 0x286 <reg_servo_angle>
    2bba:	40 e0       	ldi	r20, 0x00	; 0
    2bbc:	50 e0       	ldi	r21, 0x00	; 0
    2bbe:	60 ea       	ldi	r22, 0xA0	; 160
    2bc0:	72 e4       	ldi	r23, 0x42	; 66
    2bc2:	81 e0       	ldi	r24, 0x01	; 1
    2bc4:	0e 94 43 01 	call	0x286	; 0x286 <reg_servo_angle>
    2bc8:	40 e0       	ldi	r20, 0x00	; 0
    2bca:	50 e0       	ldi	r21, 0x00	; 0
    2bcc:	63 e6       	ldi	r22, 0x63	; 99
    2bce:	73 e4       	ldi	r23, 0x43	; 67
    2bd0:	82 e0       	ldi	r24, 0x02	; 2
    2bd2:	0e 94 43 01 	call	0x286	; 0x286 <reg_servo_angle>
    2bd6:	40 e0       	ldi	r20, 0x00	; 0
    2bd8:	50 e0       	ldi	r21, 0x00	; 0
    2bda:	68 e1       	ldi	r22, 0x18	; 24
    2bdc:	73 e4       	ldi	r23, 0x43	; 67
    2bde:	8f e0       	ldi	r24, 0x0F	; 15
    2be0:	0e 94 43 01 	call	0x286	; 0x286 <reg_servo_angle>
    2be4:	40 e0       	ldi	r20, 0x00	; 0
    2be6:	50 e0       	ldi	r21, 0x00	; 0
    2be8:	6b e4       	ldi	r22, 0x4B	; 75
    2bea:	73 e4       	ldi	r23, 0x43	; 67
    2bec:	80 e1       	ldi	r24, 0x10	; 16
    2bee:	0e 94 43 01 	call	0x286	; 0x286 <reg_servo_angle>
    2bf2:	40 e0       	ldi	r20, 0x00	; 0
    2bf4:	50 e0       	ldi	r21, 0x00	; 0
    2bf6:	64 ea       	ldi	r22, 0xA4	; 164
    2bf8:	72 e4       	ldi	r23, 0x42	; 66
    2bfa:	81 e1       	ldi	r24, 0x11	; 17
    2bfc:	0e 94 43 01 	call	0x286	; 0x286 <reg_servo_angle>
    2c00:	2f ef       	ldi	r18, 0xFF	; 255
    2c02:	87 ee       	ldi	r24, 0xE7	; 231
    2c04:	93 e0       	ldi	r25, 0x03	; 3
    2c06:	21 50       	subi	r18, 0x01	; 1
    2c08:	80 40       	sbci	r24, 0x00	; 0
    2c0a:	90 40       	sbci	r25, 0x00	; 0
    2c0c:	e1 f7       	brne	.-8      	; 0x2c06 <six_forward_right+0x102>
    2c0e:	00 c0       	rjmp	.+0      	; 0x2c10 <six_forward_right+0x10c>
    2c10:	00 00       	nop
    2c12:	0c 94 b3 01 	jmp	0x366	; 0x366 <action>
    2c16:	08 95       	ret

00002c18 <seven_forward_right>:
    2c18:	40 e0       	ldi	r20, 0x00	; 0
    2c1a:	50 e0       	ldi	r21, 0x00	; 0
    2c1c:	68 e1       	ldi	r22, 0x18	; 24
    2c1e:	73 e4       	ldi	r23, 0x43	; 67
    2c20:	86 e0       	ldi	r24, 0x06	; 6
    2c22:	0e 94 43 01 	call	0x286	; 0x286 <reg_servo_angle>
    2c26:	40 e0       	ldi	r20, 0x00	; 0
    2c28:	50 e0       	ldi	r21, 0x00	; 0
    2c2a:	60 ec       	ldi	r22, 0xC0	; 192
    2c2c:	72 e4       	ldi	r23, 0x42	; 66
    2c2e:	87 e0       	ldi	r24, 0x07	; 7
    2c30:	0e 94 43 01 	call	0x286	; 0x286 <reg_servo_angle>
    2c34:	40 e0       	ldi	r20, 0x00	; 0
    2c36:	50 e0       	ldi	r21, 0x00	; 0
    2c38:	6c e4       	ldi	r22, 0x4C	; 76
    2c3a:	73 e4       	ldi	r23, 0x43	; 67
    2c3c:	88 e0       	ldi	r24, 0x08	; 8
    2c3e:	0e 94 43 01 	call	0x286	; 0x286 <reg_servo_angle>
    2c42:	40 e0       	ldi	r20, 0x00	; 0
    2c44:	50 e0       	ldi	r21, 0x00	; 0
    2c46:	69 e1       	ldi	r22, 0x19	; 25
    2c48:	73 e4       	ldi	r23, 0x43	; 67
    2c4a:	89 e0       	ldi	r24, 0x09	; 9
    2c4c:	0e 94 43 01 	call	0x286	; 0x286 <reg_servo_angle>
    2c50:	40 e0       	ldi	r20, 0x00	; 0
    2c52:	50 e0       	ldi	r21, 0x00	; 0
    2c54:	60 e5       	ldi	r22, 0x50	; 80
    2c56:	73 e4       	ldi	r23, 0x43	; 67
    2c58:	8a e0       	ldi	r24, 0x0A	; 10
    2c5a:	0e 94 43 01 	call	0x286	; 0x286 <reg_servo_angle>
    2c5e:	40 e0       	ldi	r20, 0x00	; 0
    2c60:	50 e0       	ldi	r21, 0x00	; 0
    2c62:	62 e9       	ldi	r22, 0x92	; 146
    2c64:	72 e4       	ldi	r23, 0x42	; 66
    2c66:	8b e0       	ldi	r24, 0x0B	; 11
    2c68:	0e 94 43 01 	call	0x286	; 0x286 <reg_servo_angle>
    2c6c:	40 e0       	ldi	r20, 0x00	; 0
    2c6e:	50 e0       	ldi	r21, 0x00	; 0
    2c70:	6e e0       	ldi	r22, 0x0E	; 14
    2c72:	73 e4       	ldi	r23, 0x43	; 67
    2c74:	83 e0       	ldi	r24, 0x03	; 3
    2c76:	0e 94 43 01 	call	0x286	; 0x286 <reg_servo_angle>
    2c7a:	40 e0       	ldi	r20, 0x00	; 0
    2c7c:	50 e0       	ldi	r21, 0x00	; 0
    2c7e:	6a eb       	ldi	r22, 0xBA	; 186
    2c80:	72 e4       	ldi	r23, 0x42	; 66
    2c82:	84 e0       	ldi	r24, 0x04	; 4
    2c84:	0e 94 43 01 	call	0x286	; 0x286 <reg_servo_angle>
    2c88:	40 e0       	ldi	r20, 0x00	; 0
    2c8a:	50 e0       	ldi	r21, 0x00	; 0
    2c8c:	62 e6       	ldi	r22, 0x62	; 98
    2c8e:	73 e4       	ldi	r23, 0x43	; 67
    2c90:	85 e0       	ldi	r24, 0x05	; 5
    2c92:	0e 94 43 01 	call	0x286	; 0x286 <reg_servo_angle>
    2c96:	40 e0       	ldi	r20, 0x00	; 0
    2c98:	50 e0       	ldi	r21, 0x00	; 0
    2c9a:	6e e0       	ldi	r22, 0x0E	; 14
    2c9c:	73 e4       	ldi	r23, 0x43	; 67
    2c9e:	8c e0       	ldi	r24, 0x0C	; 12
    2ca0:	0e 94 43 01 	call	0x286	; 0x286 <reg_servo_angle>
    2ca4:	40 e0       	ldi	r20, 0x00	; 0
    2ca6:	50 e0       	ldi	r21, 0x00	; 0
    2ca8:	61 e6       	ldi	r22, 0x61	; 97
    2caa:	73 e4       	ldi	r23, 0x43	; 67
    2cac:	8d e0       	ldi	r24, 0x0D	; 13
    2cae:	0e 94 43 01 	call	0x286	; 0x286 <reg_servo_angle>
    2cb2:	40 e0       	ldi	r20, 0x00	; 0
    2cb4:	50 e0       	ldi	r21, 0x00	; 0
    2cb6:	60 e8       	ldi	r22, 0x80	; 128
    2cb8:	72 e4       	ldi	r23, 0x42	; 66
    2cba:	8e e0       	ldi	r24, 0x0E	; 14
    2cbc:	0e 94 43 01 	call	0x286	; 0x286 <reg_servo_angle>
    2cc0:	40 e0       	ldi	r20, 0x00	; 0
    2cc2:	50 e0       	ldi	r21, 0x00	; 0
    2cc4:	69 e1       	ldi	r22, 0x19	; 25
    2cc6:	73 e4       	ldi	r23, 0x43	; 67
    2cc8:	80 e0       	ldi	r24, 0x00	; 0
    2cca:	0e 94 43 01 	call	0x286	; 0x286 <reg_servo_angle>
    2cce:	40 e0       	ldi	r20, 0x00	; 0
    2cd0:	50 e0       	ldi	r21, 0x00	; 0
    2cd2:	62 e9       	ldi	r22, 0x92	; 146
    2cd4:	72 e4       	ldi	r23, 0x42	; 66
    2cd6:	81 e0       	ldi	r24, 0x01	; 1
    2cd8:	0e 94 43 01 	call	0x286	; 0x286 <reg_servo_angle>
    2cdc:	40 e0       	ldi	r20, 0x00	; 0
    2cde:	50 e0       	ldi	r21, 0x00	; 0
    2ce0:	6e e6       	ldi	r22, 0x6E	; 110
    2ce2:	73 e4       	ldi	r23, 0x43	; 67
    2ce4:	82 e0       	ldi	r24, 0x02	; 2
    2ce6:	0e 94 43 01 	call	0x286	; 0x286 <reg_servo_angle>
    2cea:	40 e0       	ldi	r20, 0x00	; 0
    2cec:	50 e0       	ldi	r21, 0x00	; 0
    2cee:	6d e1       	ldi	r22, 0x1D	; 29
    2cf0:	73 e4       	ldi	r23, 0x43	; 67
    2cf2:	8f e0       	ldi	r24, 0x0F	; 15
    2cf4:	0e 94 43 01 	call	0x286	; 0x286 <reg_servo_angle>
    2cf8:	40 e0       	ldi	r20, 0x00	; 0
    2cfa:	50 e0       	ldi	r21, 0x00	; 0
    2cfc:	65 e4       	ldi	r22, 0x45	; 69
    2cfe:	73 e4       	ldi	r23, 0x43	; 67
    2d00:	80 e1       	ldi	r24, 0x10	; 16
    2d02:	0e 94 43 01 	call	0x286	; 0x286 <reg_servo_angle>
    2d06:	40 e0       	ldi	r20, 0x00	; 0
    2d08:	50 e0       	ldi	r21, 0x00	; 0
    2d0a:	6c eb       	ldi	r22, 0xBC	; 188
    2d0c:	72 e4       	ldi	r23, 0x42	; 66
    2d0e:	81 e1       	ldi	r24, 0x11	; 17
    2d10:	0e 94 43 01 	call	0x286	; 0x286 <reg_servo_angle>
    2d14:	2f ef       	ldi	r18, 0xFF	; 255
    2d16:	87 ee       	ldi	r24, 0xE7	; 231
    2d18:	93 e0       	ldi	r25, 0x03	; 3
    2d1a:	21 50       	subi	r18, 0x01	; 1
    2d1c:	80 40       	sbci	r24, 0x00	; 0
    2d1e:	90 40       	sbci	r25, 0x00	; 0
    2d20:	e1 f7       	brne	.-8      	; 0x2d1a <seven_forward_right+0x102>
    2d22:	00 c0       	rjmp	.+0      	; 0x2d24 <seven_forward_right+0x10c>
    2d24:	00 00       	nop
    2d26:	0c 94 b3 01 	jmp	0x366	; 0x366 <action>
    2d2a:	08 95       	ret

00002d2c <eight_forward_right>:
    2d2c:	40 e0       	ldi	r20, 0x00	; 0
    2d2e:	50 e0       	ldi	r21, 0x00	; 0
    2d30:	68 e1       	ldi	r22, 0x18	; 24
    2d32:	73 e4       	ldi	r23, 0x43	; 67
    2d34:	86 e0       	ldi	r24, 0x06	; 6
    2d36:	0e 94 43 01 	call	0x286	; 0x286 <reg_servo_angle>
    2d3a:	40 e0       	ldi	r20, 0x00	; 0
    2d3c:	50 e0       	ldi	r21, 0x00	; 0
    2d3e:	6c ed       	ldi	r22, 0xDC	; 220
    2d40:	72 e4       	ldi	r23, 0x42	; 66
    2d42:	87 e0       	ldi	r24, 0x07	; 7
    2d44:	0e 94 43 01 	call	0x286	; 0x286 <reg_servo_angle>
    2d48:	40 e0       	ldi	r20, 0x00	; 0
    2d4a:	50 e0       	ldi	r21, 0x00	; 0
    2d4c:	63 e4       	ldi	r22, 0x43	; 67
    2d4e:	73 e4       	ldi	r23, 0x43	; 67
    2d50:	88 e0       	ldi	r24, 0x08	; 8
    2d52:	0e 94 43 01 	call	0x286	; 0x286 <reg_servo_angle>
    2d56:	40 e0       	ldi	r20, 0x00	; 0
    2d58:	50 e0       	ldi	r21, 0x00	; 0
    2d5a:	69 e1       	ldi	r22, 0x19	; 25
    2d5c:	73 e4       	ldi	r23, 0x43	; 67
    2d5e:	89 e0       	ldi	r24, 0x09	; 9
    2d60:	0e 94 43 01 	call	0x286	; 0x286 <reg_servo_angle>
    2d64:	40 e0       	ldi	r20, 0x00	; 0
    2d66:	50 e0       	ldi	r21, 0x00	; 0
    2d68:	60 e5       	ldi	r22, 0x50	; 80
    2d6a:	73 e4       	ldi	r23, 0x43	; 67
    2d6c:	8a e0       	ldi	r24, 0x0A	; 10
    2d6e:	0e 94 43 01 	call	0x286	; 0x286 <reg_servo_angle>
    2d72:	40 e0       	ldi	r20, 0x00	; 0
    2d74:	50 e0       	ldi	r21, 0x00	; 0
    2d76:	62 e9       	ldi	r22, 0x92	; 146
    2d78:	72 e4       	ldi	r23, 0x42	; 66
    2d7a:	8b e0       	ldi	r24, 0x0B	; 11
    2d7c:	0e 94 43 01 	call	0x286	; 0x286 <reg_servo_angle>
    2d80:	40 e0       	ldi	r20, 0x00	; 0
    2d82:	50 e0       	ldi	r21, 0x00	; 0
    2d84:	6e e0       	ldi	r22, 0x0E	; 14
    2d86:	73 e4       	ldi	r23, 0x43	; 67
    2d88:	83 e0       	ldi	r24, 0x03	; 3
    2d8a:	0e 94 43 01 	call	0x286	; 0x286 <reg_servo_angle>
    2d8e:	40 e0       	ldi	r20, 0x00	; 0
    2d90:	50 e0       	ldi	r21, 0x00	; 0
    2d92:	6a eb       	ldi	r22, 0xBA	; 186
    2d94:	72 e4       	ldi	r23, 0x42	; 66
    2d96:	84 e0       	ldi	r24, 0x04	; 4
    2d98:	0e 94 43 01 	call	0x286	; 0x286 <reg_servo_angle>
    2d9c:	40 e0       	ldi	r20, 0x00	; 0
    2d9e:	50 e0       	ldi	r21, 0x00	; 0
    2da0:	62 e6       	ldi	r22, 0x62	; 98
    2da2:	73 e4       	ldi	r23, 0x43	; 67
    2da4:	85 e0       	ldi	r24, 0x05	; 5
    2da6:	0e 94 43 01 	call	0x286	; 0x286 <reg_servo_angle>
    2daa:	40 e0       	ldi	r20, 0x00	; 0
    2dac:	50 e0       	ldi	r21, 0x00	; 0
    2dae:	6e e0       	ldi	r22, 0x0E	; 14
    2db0:	73 e4       	ldi	r23, 0x43	; 67
    2db2:	8c e0       	ldi	r24, 0x0C	; 12
    2db4:	0e 94 43 01 	call	0x286	; 0x286 <reg_servo_angle>
    2db8:	40 e0       	ldi	r20, 0x00	; 0
    2dba:	50 e0       	ldi	r21, 0x00	; 0
    2dbc:	6f e4       	ldi	r22, 0x4F	; 79
    2dbe:	73 e4       	ldi	r23, 0x43	; 67
    2dc0:	8d e0       	ldi	r24, 0x0D	; 13
    2dc2:	0e 94 43 01 	call	0x286	; 0x286 <reg_servo_angle>
    2dc6:	40 e0       	ldi	r20, 0x00	; 0
    2dc8:	50 e0       	ldi	r21, 0x00	; 0
    2dca:	64 e9       	ldi	r22, 0x94	; 148
    2dcc:	72 e4       	ldi	r23, 0x42	; 66
    2dce:	8e e0       	ldi	r24, 0x0E	; 14
    2dd0:	0e 94 43 01 	call	0x286	; 0x286 <reg_servo_angle>
    2dd4:	40 e0       	ldi	r20, 0x00	; 0
    2dd6:	50 e0       	ldi	r21, 0x00	; 0
    2dd8:	69 e1       	ldi	r22, 0x19	; 25
    2dda:	73 e4       	ldi	r23, 0x43	; 67
    2ddc:	80 e0       	ldi	r24, 0x00	; 0
    2dde:	0e 94 43 01 	call	0x286	; 0x286 <reg_servo_angle>
    2de2:	40 e0       	ldi	r20, 0x00	; 0
    2de4:	50 e0       	ldi	r21, 0x00	; 0
    2de6:	68 eb       	ldi	r22, 0xB8	; 184
    2de8:	72 e4       	ldi	r23, 0x42	; 66
    2dea:	81 e0       	ldi	r24, 0x01	; 1
    2dec:	0e 94 43 01 	call	0x286	; 0x286 <reg_servo_angle>
    2df0:	40 e0       	ldi	r20, 0x00	; 0
    2df2:	50 e0       	ldi	r21, 0x00	; 0
    2df4:	63 e6       	ldi	r22, 0x63	; 99
    2df6:	73 e4       	ldi	r23, 0x43	; 67
    2df8:	82 e0       	ldi	r24, 0x02	; 2
    2dfa:	0e 94 43 01 	call	0x286	; 0x286 <reg_servo_angle>
    2dfe:	40 e0       	ldi	r20, 0x00	; 0
    2e00:	50 e0       	ldi	r21, 0x00	; 0
    2e02:	6d e1       	ldi	r22, 0x1D	; 29
    2e04:	73 e4       	ldi	r23, 0x43	; 67
    2e06:	8f e0       	ldi	r24, 0x0F	; 15
    2e08:	0e 94 43 01 	call	0x286	; 0x286 <reg_servo_angle>
    2e0c:	40 e0       	ldi	r20, 0x00	; 0
    2e0e:	50 e0       	ldi	r21, 0x00	; 0
    2e10:	65 e4       	ldi	r22, 0x45	; 69
    2e12:	73 e4       	ldi	r23, 0x43	; 67
    2e14:	80 e1       	ldi	r24, 0x10	; 16
    2e16:	0e 94 43 01 	call	0x286	; 0x286 <reg_servo_angle>
    2e1a:	40 e0       	ldi	r20, 0x00	; 0
    2e1c:	50 e0       	ldi	r21, 0x00	; 0
    2e1e:	6c eb       	ldi	r22, 0xBC	; 188
    2e20:	72 e4       	ldi	r23, 0x42	; 66
    2e22:	81 e1       	ldi	r24, 0x11	; 17
    2e24:	0e 94 43 01 	call	0x286	; 0x286 <reg_servo_angle>
    2e28:	2f ef       	ldi	r18, 0xFF	; 255
    2e2a:	87 ee       	ldi	r24, 0xE7	; 231
    2e2c:	93 e0       	ldi	r25, 0x03	; 3
    2e2e:	21 50       	subi	r18, 0x01	; 1
    2e30:	80 40       	sbci	r24, 0x00	; 0
    2e32:	90 40       	sbci	r25, 0x00	; 0
    2e34:	e1 f7       	brne	.-8      	; 0x2e2e <eight_forward_right+0x102>
    2e36:	00 c0       	rjmp	.+0      	; 0x2e38 <eight_forward_right+0x10c>
    2e38:	00 00       	nop
    2e3a:	0c 94 b3 01 	jmp	0x366	; 0x366 <action>
    2e3e:	08 95       	ret

00002e40 <walk_forward_right>:
    2e40:	75 df       	rcall	.-278    	; 0x2d2c <eight_forward_right>
    2e42:	ae db       	rcall	.-2212   	; 0x25a0 <one_forward_right>
    2e44:	37 dc       	rcall	.-1938   	; 0x26b4 <two_forward_right>
    2e46:	c0 dc       	rcall	.-1664   	; 0x27c8 <three_forward_right>
    2e48:	49 dd       	rcall	.-1390   	; 0x28dc <four_forward_right>
    2e4a:	48 dd       	rcall	.-1392   	; 0x28dc <four_forward_right>
    2e4c:	d1 dd       	rcall	.-1118   	; 0x29f0 <five_forward_right>
    2e4e:	5a de       	rcall	.-844    	; 0x2b04 <six_forward_right>
    2e50:	e3 de       	rcall	.-570    	; 0x2c18 <seven_forward_right>
    2e52:	6c cf       	rjmp	.-296    	; 0x2d2c <eight_forward_right>
    2e54:	08 95       	ret

00002e56 <one_backward>:
    2e56:	40 e0       	ldi	r20, 0x00	; 0
    2e58:	50 e0       	ldi	r21, 0x00	; 0
    2e5a:	63 e1       	ldi	r22, 0x13	; 19
    2e5c:	73 e4       	ldi	r23, 0x43	; 67
    2e5e:	86 e0       	ldi	r24, 0x06	; 6
    2e60:	0e 94 43 01 	call	0x286	; 0x286 <reg_servo_angle>
    2e64:	40 e0       	ldi	r20, 0x00	; 0
    2e66:	50 e0       	ldi	r21, 0x00	; 0
    2e68:	68 eb       	ldi	r22, 0xB8	; 184
    2e6a:	72 e4       	ldi	r23, 0x42	; 66
    2e6c:	87 e0       	ldi	r24, 0x07	; 7
    2e6e:	0e 94 43 01 	call	0x286	; 0x286 <reg_servo_angle>
    2e72:	40 e0       	ldi	r20, 0x00	; 0
    2e74:	50 e0       	ldi	r21, 0x00	; 0
    2e76:	63 e6       	ldi	r22, 0x63	; 99
    2e78:	73 e4       	ldi	r23, 0x43	; 67
    2e7a:	88 e0       	ldi	r24, 0x08	; 8
    2e7c:	0e 94 43 01 	call	0x286	; 0x286 <reg_servo_angle>
    2e80:	40 e0       	ldi	r20, 0x00	; 0
    2e82:	50 e0       	ldi	r21, 0x00	; 0
    2e84:	6f e0       	ldi	r22, 0x0F	; 15
    2e86:	73 e4       	ldi	r23, 0x43	; 67
    2e88:	89 e0       	ldi	r24, 0x09	; 9
    2e8a:	0e 94 43 01 	call	0x286	; 0x286 <reg_servo_angle>
    2e8e:	40 e0       	ldi	r20, 0x00	; 0
    2e90:	50 e0       	ldi	r21, 0x00	; 0
    2e92:	64 e5       	ldi	r22, 0x54	; 84
    2e94:	73 e4       	ldi	r23, 0x43	; 67
    2e96:	8a e0       	ldi	r24, 0x0A	; 10
    2e98:	0e 94 43 01 	call	0x286	; 0x286 <reg_servo_angle>
    2e9c:	40 e0       	ldi	r20, 0x00	; 0
    2e9e:	50 e0       	ldi	r21, 0x00	; 0
    2ea0:	6a ea       	ldi	r22, 0xAA	; 170
    2ea2:	72 e4       	ldi	r23, 0x42	; 66
    2ea4:	8b e0       	ldi	r24, 0x0B	; 11
    2ea6:	0e 94 43 01 	call	0x286	; 0x286 <reg_servo_angle>
    2eaa:	40 e0       	ldi	r20, 0x00	; 0
    2eac:	50 e0       	ldi	r21, 0x00	; 0
    2eae:	6e e1       	ldi	r22, 0x1E	; 30
    2eb0:	73 e4       	ldi	r23, 0x43	; 67
    2eb2:	83 e0       	ldi	r24, 0x03	; 3
    2eb4:	0e 94 43 01 	call	0x286	; 0x286 <reg_servo_angle>
    2eb8:	40 e0       	ldi	r20, 0x00	; 0
    2eba:	50 e0       	ldi	r21, 0x00	; 0
    2ebc:	66 e9       	ldi	r22, 0x96	; 150
    2ebe:	72 e4       	ldi	r23, 0x42	; 66
    2ec0:	84 e0       	ldi	r24, 0x04	; 4
    2ec2:	0e 94 43 01 	call	0x286	; 0x286 <reg_servo_angle>
    2ec6:	40 e0       	ldi	r20, 0x00	; 0
    2ec8:	50 e0       	ldi	r21, 0x00	; 0
    2eca:	6c e6       	ldi	r22, 0x6C	; 108
    2ecc:	73 e4       	ldi	r23, 0x43	; 67
    2ece:	85 e0       	ldi	r24, 0x05	; 5
    2ed0:	0e 94 43 01 	call	0x286	; 0x286 <reg_servo_angle>
    2ed4:	40 e0       	ldi	r20, 0x00	; 0
    2ed6:	50 e0       	ldi	r21, 0x00	; 0
    2ed8:	6e e1       	ldi	r22, 0x1E	; 30
    2eda:	73 e4       	ldi	r23, 0x43	; 67
    2edc:	8c e0       	ldi	r24, 0x0C	; 12
    2ede:	0e 94 43 01 	call	0x286	; 0x286 <reg_servo_angle>
    2ee2:	40 e0       	ldi	r20, 0x00	; 0
    2ee4:	50 e0       	ldi	r21, 0x00	; 0
    2ee6:	6f e4       	ldi	r22, 0x4F	; 79
    2ee8:	73 e4       	ldi	r23, 0x43	; 67
    2eea:	8d e0       	ldi	r24, 0x0D	; 13
    2eec:	0e 94 43 01 	call	0x286	; 0x286 <reg_servo_angle>
    2ef0:	40 e0       	ldi	r20, 0x00	; 0
    2ef2:	50 e0       	ldi	r21, 0x00	; 0
    2ef4:	64 e9       	ldi	r22, 0x94	; 148
    2ef6:	72 e4       	ldi	r23, 0x42	; 66
    2ef8:	8e e0       	ldi	r24, 0x0E	; 14
    2efa:	0e 94 43 01 	call	0x286	; 0x286 <reg_servo_angle>
    2efe:	40 e0       	ldi	r20, 0x00	; 0
    2f00:	50 e0       	ldi	r21, 0x00	; 0
    2f02:	6f e0       	ldi	r22, 0x0F	; 15
    2f04:	73 e4       	ldi	r23, 0x43	; 67
    2f06:	80 e0       	ldi	r24, 0x00	; 0
    2f08:	0e 94 43 01 	call	0x286	; 0x286 <reg_servo_angle>
    2f0c:	40 e0       	ldi	r20, 0x00	; 0
    2f0e:	50 e0       	ldi	r21, 0x00	; 0
    2f10:	6e ec       	ldi	r22, 0xCE	; 206
    2f12:	72 e4       	ldi	r23, 0x42	; 66
    2f14:	81 e0       	ldi	r24, 0x01	; 1
    2f16:	0e 94 43 01 	call	0x286	; 0x286 <reg_servo_angle>
    2f1a:	40 e0       	ldi	r20, 0x00	; 0
    2f1c:	50 e0       	ldi	r21, 0x00	; 0
    2f1e:	6e e4       	ldi	r22, 0x4E	; 78
    2f20:	73 e4       	ldi	r23, 0x43	; 67
    2f22:	82 e0       	ldi	r24, 0x02	; 2
    2f24:	0e 94 43 01 	call	0x286	; 0x286 <reg_servo_angle>
    2f28:	40 e0       	ldi	r20, 0x00	; 0
    2f2a:	50 e0       	ldi	r21, 0x00	; 0
    2f2c:	63 e1       	ldi	r22, 0x13	; 19
    2f2e:	73 e4       	ldi	r23, 0x43	; 67
    2f30:	8f e0       	ldi	r24, 0x0F	; 15
    2f32:	0e 94 43 01 	call	0x286	; 0x286 <reg_servo_angle>
    2f36:	40 e0       	ldi	r20, 0x00	; 0
    2f38:	50 e0       	ldi	r21, 0x00	; 0
    2f3a:	63 e6       	ldi	r22, 0x63	; 99
    2f3c:	73 e4       	ldi	r23, 0x43	; 67
    2f3e:	80 e1       	ldi	r24, 0x10	; 16
    2f40:	0e 94 43 01 	call	0x286	; 0x286 <reg_servo_angle>
    2f44:	40 e0       	ldi	r20, 0x00	; 0
    2f46:	50 e0       	ldi	r21, 0x00	; 0
    2f48:	68 e7       	ldi	r22, 0x78	; 120
    2f4a:	72 e4       	ldi	r23, 0x42	; 66
    2f4c:	81 e1       	ldi	r24, 0x11	; 17
    2f4e:	0e 94 43 01 	call	0x286	; 0x286 <reg_servo_angle>
    2f52:	2f ef       	ldi	r18, 0xFF	; 255
    2f54:	87 ee       	ldi	r24, 0xE7	; 231
    2f56:	93 e0       	ldi	r25, 0x03	; 3
    2f58:	21 50       	subi	r18, 0x01	; 1
    2f5a:	80 40       	sbci	r24, 0x00	; 0
    2f5c:	90 40       	sbci	r25, 0x00	; 0
    2f5e:	e1 f7       	brne	.-8      	; 0x2f58 <one_backward+0x102>
    2f60:	00 c0       	rjmp	.+0      	; 0x2f62 <one_backward+0x10c>
    2f62:	00 00       	nop
    2f64:	0c 94 b3 01 	jmp	0x366	; 0x366 <action>
    2f68:	08 95       	ret

00002f6a <two_backward>:
    2f6a:	40 e0       	ldi	r20, 0x00	; 0
    2f6c:	50 e0       	ldi	r21, 0x00	; 0
    2f6e:	68 e1       	ldi	r22, 0x18	; 24
    2f70:	73 e4       	ldi	r23, 0x43	; 67
    2f72:	86 e0       	ldi	r24, 0x06	; 6
    2f74:	0e 94 43 01 	call	0x286	; 0x286 <reg_servo_angle>
    2f78:	40 e0       	ldi	r20, 0x00	; 0
    2f7a:	50 e0       	ldi	r21, 0x00	; 0
    2f7c:	62 ec       	ldi	r22, 0xC2	; 194
    2f7e:	72 e4       	ldi	r23, 0x42	; 66
    2f80:	87 e0       	ldi	r24, 0x07	; 7
    2f82:	0e 94 43 01 	call	0x286	; 0x286 <reg_servo_angle>
    2f86:	40 e0       	ldi	r20, 0x00	; 0
    2f88:	50 e0       	ldi	r21, 0x00	; 0
    2f8a:	6a e5       	ldi	r22, 0x5A	; 90
    2f8c:	73 e4       	ldi	r23, 0x43	; 67
    2f8e:	88 e0       	ldi	r24, 0x08	; 8
    2f90:	0e 94 43 01 	call	0x286	; 0x286 <reg_servo_angle>
    2f94:	40 e0       	ldi	r20, 0x00	; 0
    2f96:	50 e0       	ldi	r21, 0x00	; 0
    2f98:	64 e1       	ldi	r22, 0x14	; 20
    2f9a:	73 e4       	ldi	r23, 0x43	; 67
    2f9c:	89 e0       	ldi	r24, 0x09	; 9
    2f9e:	0e 94 43 01 	call	0x286	; 0x286 <reg_servo_angle>
    2fa2:	40 e0       	ldi	r20, 0x00	; 0
    2fa4:	50 e0       	ldi	r21, 0x00	; 0
    2fa6:	6c e5       	ldi	r22, 0x5C	; 92
    2fa8:	73 e4       	ldi	r23, 0x43	; 67
    2faa:	8a e0       	ldi	r24, 0x0A	; 10
    2fac:	0e 94 43 01 	call	0x286	; 0x286 <reg_servo_angle>
    2fb0:	40 e0       	ldi	r20, 0x00	; 0
    2fb2:	50 e0       	ldi	r21, 0x00	; 0
    2fb4:	62 e9       	ldi	r22, 0x92	; 146
    2fb6:	72 e4       	ldi	r23, 0x42	; 66
    2fb8:	8b e0       	ldi	r24, 0x0B	; 11
    2fba:	0e 94 43 01 	call	0x286	; 0x286 <reg_servo_angle>
    2fbe:	40 e0       	ldi	r20, 0x00	; 0
    2fc0:	50 e0       	ldi	r21, 0x00	; 0
    2fc2:	66 e1       	ldi	r22, 0x16	; 22
    2fc4:	73 e4       	ldi	r23, 0x43	; 67
    2fc6:	83 e0       	ldi	r24, 0x03	; 3
    2fc8:	0e 94 43 01 	call	0x286	; 0x286 <reg_servo_angle>
    2fcc:	40 e0       	ldi	r20, 0x00	; 0
    2fce:	50 e0       	ldi	r21, 0x00	; 0
    2fd0:	64 e9       	ldi	r22, 0x94	; 148
    2fd2:	72 e4       	ldi	r23, 0x42	; 66
    2fd4:	84 e0       	ldi	r24, 0x04	; 4
    2fd6:	0e 94 43 01 	call	0x286	; 0x286 <reg_servo_angle>
    2fda:	40 e0       	ldi	r20, 0x00	; 0
    2fdc:	50 e0       	ldi	r21, 0x00	; 0
    2fde:	6d e6       	ldi	r22, 0x6D	; 109
    2fe0:	73 e4       	ldi	r23, 0x43	; 67
    2fe2:	85 e0       	ldi	r24, 0x05	; 5
    2fe4:	0e 94 43 01 	call	0x286	; 0x286 <reg_servo_angle>
    2fe8:	40 e0       	ldi	r20, 0x00	; 0
    2fea:	50 e0       	ldi	r21, 0x00	; 0
    2fec:	66 e1       	ldi	r22, 0x16	; 22
    2fee:	73 e4       	ldi	r23, 0x43	; 67
    2ff0:	8c e0       	ldi	r24, 0x0C	; 12
    2ff2:	0e 94 43 01 	call	0x286	; 0x286 <reg_servo_angle>
    2ff6:	40 e0       	ldi	r20, 0x00	; 0
    2ff8:	50 e0       	ldi	r21, 0x00	; 0
    2ffa:	60 e5       	ldi	r22, 0x50	; 80
    2ffc:	73 e4       	ldi	r23, 0x43	; 67
    2ffe:	8d e0       	ldi	r24, 0x0D	; 13
    3000:	0e 94 43 01 	call	0x286	; 0x286 <reg_servo_angle>
    3004:	40 e0       	ldi	r20, 0x00	; 0
    3006:	50 e0       	ldi	r21, 0x00	; 0
    3008:	62 e9       	ldi	r22, 0x92	; 146
    300a:	72 e4       	ldi	r23, 0x42	; 66
    300c:	8e e0       	ldi	r24, 0x0E	; 14
    300e:	0e 94 43 01 	call	0x286	; 0x286 <reg_servo_angle>
    3012:	40 e0       	ldi	r20, 0x00	; 0
    3014:	50 e0       	ldi	r21, 0x00	; 0
    3016:	64 e1       	ldi	r22, 0x14	; 20
    3018:	73 e4       	ldi	r23, 0x43	; 67
    301a:	80 e0       	ldi	r24, 0x00	; 0
    301c:	0e 94 43 01 	call	0x286	; 0x286 <reg_servo_angle>
    3020:	40 e0       	ldi	r20, 0x00	; 0
    3022:	50 e0       	ldi	r21, 0x00	; 0
    3024:	62 ec       	ldi	r22, 0xC2	; 194
    3026:	72 e4       	ldi	r23, 0x42	; 66
    3028:	81 e0       	ldi	r24, 0x01	; 1
    302a:	0e 94 43 01 	call	0x286	; 0x286 <reg_servo_angle>
    302e:	40 e0       	ldi	r20, 0x00	; 0
    3030:	50 e0       	ldi	r21, 0x00	; 0
    3032:	6a e5       	ldi	r22, 0x5A	; 90
    3034:	73 e4       	ldi	r23, 0x43	; 67
    3036:	82 e0       	ldi	r24, 0x02	; 2
    3038:	0e 94 43 01 	call	0x286	; 0x286 <reg_servo_angle>
    303c:	40 e0       	ldi	r20, 0x00	; 0
    303e:	50 e0       	ldi	r21, 0x00	; 0
    3040:	68 e1       	ldi	r22, 0x18	; 24
    3042:	73 e4       	ldi	r23, 0x43	; 67
    3044:	8f e0       	ldi	r24, 0x0F	; 15
    3046:	0e 94 43 01 	call	0x286	; 0x286 <reg_servo_angle>
    304a:	40 e0       	ldi	r20, 0x00	; 0
    304c:	50 e0       	ldi	r21, 0x00	; 0
    304e:	6c e5       	ldi	r22, 0x5C	; 92
    3050:	73 e4       	ldi	r23, 0x43	; 67
    3052:	80 e1       	ldi	r24, 0x10	; 16
    3054:	0e 94 43 01 	call	0x286	; 0x286 <reg_servo_angle>
    3058:	40 e0       	ldi	r20, 0x00	; 0
    305a:	50 e0       	ldi	r21, 0x00	; 0
    305c:	62 e9       	ldi	r22, 0x92	; 146
    305e:	72 e4       	ldi	r23, 0x42	; 66
    3060:	81 e1       	ldi	r24, 0x11	; 17
    3062:	0e 94 43 01 	call	0x286	; 0x286 <reg_servo_angle>
    3066:	2f ef       	ldi	r18, 0xFF	; 255
    3068:	87 ee       	ldi	r24, 0xE7	; 231
    306a:	93 e0       	ldi	r25, 0x03	; 3
    306c:	21 50       	subi	r18, 0x01	; 1
    306e:	80 40       	sbci	r24, 0x00	; 0
    3070:	90 40       	sbci	r25, 0x00	; 0
    3072:	e1 f7       	brne	.-8      	; 0x306c <two_backward+0x102>
    3074:	00 c0       	rjmp	.+0      	; 0x3076 <two_backward+0x10c>
    3076:	00 00       	nop
    3078:	0c 94 b3 01 	jmp	0x366	; 0x366 <action>
    307c:	08 95       	ret

0000307e <three_backward>:
    307e:	40 e0       	ldi	r20, 0x00	; 0
    3080:	50 e0       	ldi	r21, 0x00	; 0
    3082:	6d e1       	ldi	r22, 0x1D	; 29
    3084:	73 e4       	ldi	r23, 0x43	; 67
    3086:	86 e0       	ldi	r24, 0x06	; 6
    3088:	0e 94 43 01 	call	0x286	; 0x286 <reg_servo_angle>
    308c:	40 e0       	ldi	r20, 0x00	; 0
    308e:	50 e0       	ldi	r21, 0x00	; 0
    3090:	6e ec       	ldi	r22, 0xCE	; 206
    3092:	72 e4       	ldi	r23, 0x42	; 66
    3094:	87 e0       	ldi	r24, 0x07	; 7
    3096:	0e 94 43 01 	call	0x286	; 0x286 <reg_servo_angle>
    309a:	40 e0       	ldi	r20, 0x00	; 0
    309c:	50 e0       	ldi	r21, 0x00	; 0
    309e:	6e e4       	ldi	r22, 0x4E	; 78
    30a0:	73 e4       	ldi	r23, 0x43	; 67
    30a2:	88 e0       	ldi	r24, 0x08	; 8
    30a4:	0e 94 43 01 	call	0x286	; 0x286 <reg_servo_angle>
    30a8:	40 e0       	ldi	r20, 0x00	; 0
    30aa:	50 e0       	ldi	r21, 0x00	; 0
    30ac:	69 e1       	ldi	r22, 0x19	; 25
    30ae:	73 e4       	ldi	r23, 0x43	; 67
    30b0:	89 e0       	ldi	r24, 0x09	; 9
    30b2:	0e 94 43 01 	call	0x286	; 0x286 <reg_servo_angle>
    30b6:	40 e0       	ldi	r20, 0x00	; 0
    30b8:	50 e0       	ldi	r21, 0x00	; 0
    30ba:	63 e6       	ldi	r22, 0x63	; 99
    30bc:	73 e4       	ldi	r23, 0x43	; 67
    30be:	8a e0       	ldi	r24, 0x0A	; 10
    30c0:	0e 94 43 01 	call	0x286	; 0x286 <reg_servo_angle>
    30c4:	40 e0       	ldi	r20, 0x00	; 0
    30c6:	50 e0       	ldi	r21, 0x00	; 0
    30c8:	68 e7       	ldi	r22, 0x78	; 120
    30ca:	72 e4       	ldi	r23, 0x42	; 66
    30cc:	8b e0       	ldi	r24, 0x0B	; 11
    30ce:	0e 94 43 01 	call	0x286	; 0x286 <reg_servo_angle>
    30d2:	40 e0       	ldi	r20, 0x00	; 0
    30d4:	50 e0       	ldi	r21, 0x00	; 0
    30d6:	6e e0       	ldi	r22, 0x0E	; 14
    30d8:	73 e4       	ldi	r23, 0x43	; 67
    30da:	83 e0       	ldi	r24, 0x03	; 3
    30dc:	0e 94 43 01 	call	0x286	; 0x286 <reg_servo_angle>
    30e0:	40 e0       	ldi	r20, 0x00	; 0
    30e2:	50 e0       	ldi	r21, 0x00	; 0
    30e4:	66 e9       	ldi	r22, 0x96	; 150
    30e6:	72 e4       	ldi	r23, 0x42	; 66
    30e8:	84 e0       	ldi	r24, 0x04	; 4
    30ea:	0e 94 43 01 	call	0x286	; 0x286 <reg_servo_angle>
    30ee:	40 e0       	ldi	r20, 0x00	; 0
    30f0:	50 e0       	ldi	r21, 0x00	; 0
    30f2:	6c e6       	ldi	r22, 0x6C	; 108
    30f4:	73 e4       	ldi	r23, 0x43	; 67
    30f6:	85 e0       	ldi	r24, 0x05	; 5
    30f8:	0e 94 43 01 	call	0x286	; 0x286 <reg_servo_angle>
    30fc:	40 e0       	ldi	r20, 0x00	; 0
    30fe:	50 e0       	ldi	r21, 0x00	; 0
    3100:	6e e0       	ldi	r22, 0x0E	; 14
    3102:	73 e4       	ldi	r23, 0x43	; 67
    3104:	8c e0       	ldi	r24, 0x0C	; 12
    3106:	0e 94 43 01 	call	0x286	; 0x286 <reg_servo_angle>
    310a:	40 e0       	ldi	r20, 0x00	; 0
    310c:	50 e0       	ldi	r21, 0x00	; 0
    310e:	6f e4       	ldi	r22, 0x4F	; 79
    3110:	73 e4       	ldi	r23, 0x43	; 67
    3112:	8d e0       	ldi	r24, 0x0D	; 13
    3114:	0e 94 43 01 	call	0x286	; 0x286 <reg_servo_angle>
    3118:	40 e0       	ldi	r20, 0x00	; 0
    311a:	50 e0       	ldi	r21, 0x00	; 0
    311c:	64 e9       	ldi	r22, 0x94	; 148
    311e:	72 e4       	ldi	r23, 0x42	; 66
    3120:	8e e0       	ldi	r24, 0x0E	; 14
    3122:	0e 94 43 01 	call	0x286	; 0x286 <reg_servo_angle>
    3126:	40 e0       	ldi	r20, 0x00	; 0
    3128:	50 e0       	ldi	r21, 0x00	; 0
    312a:	69 e1       	ldi	r22, 0x19	; 25
    312c:	73 e4       	ldi	r23, 0x43	; 67
    312e:	80 e0       	ldi	r24, 0x00	; 0
    3130:	0e 94 43 01 	call	0x286	; 0x286 <reg_servo_angle>
    3134:	40 e0       	ldi	r20, 0x00	; 0
    3136:	50 e0       	ldi	r21, 0x00	; 0
    3138:	68 eb       	ldi	r22, 0xB8	; 184
    313a:	72 e4       	ldi	r23, 0x42	; 66
    313c:	81 e0       	ldi	r24, 0x01	; 1
    313e:	0e 94 43 01 	call	0x286	; 0x286 <reg_servo_angle>
    3142:	40 e0       	ldi	r20, 0x00	; 0
    3144:	50 e0       	ldi	r21, 0x00	; 0
    3146:	63 e6       	ldi	r22, 0x63	; 99
    3148:	73 e4       	ldi	r23, 0x43	; 67
    314a:	82 e0       	ldi	r24, 0x02	; 2
    314c:	0e 94 43 01 	call	0x286	; 0x286 <reg_servo_angle>
    3150:	40 e0       	ldi	r20, 0x00	; 0
    3152:	50 e0       	ldi	r21, 0x00	; 0
    3154:	6d e1       	ldi	r22, 0x1D	; 29
    3156:	73 e4       	ldi	r23, 0x43	; 67
    3158:	8f e0       	ldi	r24, 0x0F	; 15
    315a:	0e 94 43 01 	call	0x286	; 0x286 <reg_servo_angle>
    315e:	40 e0       	ldi	r20, 0x00	; 0
    3160:	50 e0       	ldi	r21, 0x00	; 0
    3162:	64 e5       	ldi	r22, 0x54	; 84
    3164:	73 e4       	ldi	r23, 0x43	; 67
    3166:	80 e1       	ldi	r24, 0x10	; 16
    3168:	0e 94 43 01 	call	0x286	; 0x286 <reg_servo_angle>
    316c:	40 e0       	ldi	r20, 0x00	; 0
    316e:	50 e0       	ldi	r21, 0x00	; 0
    3170:	6a ea       	ldi	r22, 0xAA	; 170
    3172:	72 e4       	ldi	r23, 0x42	; 66
    3174:	81 e1       	ldi	r24, 0x11	; 17
    3176:	0e 94 43 01 	call	0x286	; 0x286 <reg_servo_angle>
    317a:	2f ef       	ldi	r18, 0xFF	; 255
    317c:	87 ee       	ldi	r24, 0xE7	; 231
    317e:	93 e0       	ldi	r25, 0x03	; 3
    3180:	21 50       	subi	r18, 0x01	; 1
    3182:	80 40       	sbci	r24, 0x00	; 0
    3184:	90 40       	sbci	r25, 0x00	; 0
    3186:	e1 f7       	brne	.-8      	; 0x3180 <three_backward+0x102>
    3188:	00 c0       	rjmp	.+0      	; 0x318a <three_backward+0x10c>
    318a:	00 00       	nop
    318c:	0c 94 b3 01 	jmp	0x366	; 0x366 <action>
    3190:	08 95       	ret

00003192 <four_backward>:
    3192:	40 e0       	ldi	r20, 0x00	; 0
    3194:	50 e0       	ldi	r21, 0x00	; 0
    3196:	6d e1       	ldi	r22, 0x1D	; 29
    3198:	73 e4       	ldi	r23, 0x43	; 67
    319a:	86 e0       	ldi	r24, 0x06	; 6
    319c:	0e 94 43 01 	call	0x286	; 0x286 <reg_servo_angle>
    31a0:	40 e0       	ldi	r20, 0x00	; 0
    31a2:	50 e0       	ldi	r21, 0x00	; 0
    31a4:	6e ec       	ldi	r22, 0xCE	; 206
    31a6:	72 e4       	ldi	r23, 0x42	; 66
    31a8:	87 e0       	ldi	r24, 0x07	; 7
    31aa:	0e 94 43 01 	call	0x286	; 0x286 <reg_servo_angle>
    31ae:	40 e0       	ldi	r20, 0x00	; 0
    31b0:	50 e0       	ldi	r21, 0x00	; 0
    31b2:	6e e4       	ldi	r22, 0x4E	; 78
    31b4:	73 e4       	ldi	r23, 0x43	; 67
    31b6:	88 e0       	ldi	r24, 0x08	; 8
    31b8:	0e 94 43 01 	call	0x286	; 0x286 <reg_servo_angle>
    31bc:	40 e0       	ldi	r20, 0x00	; 0
    31be:	50 e0       	ldi	r21, 0x00	; 0
    31c0:	69 e1       	ldi	r22, 0x19	; 25
    31c2:	73 e4       	ldi	r23, 0x43	; 67
    31c4:	89 e0       	ldi	r24, 0x09	; 9
    31c6:	0e 94 43 01 	call	0x286	; 0x286 <reg_servo_angle>
    31ca:	40 e0       	ldi	r20, 0x00	; 0
    31cc:	50 e0       	ldi	r21, 0x00	; 0
    31ce:	60 e5       	ldi	r22, 0x50	; 80
    31d0:	73 e4       	ldi	r23, 0x43	; 67
    31d2:	8a e0       	ldi	r24, 0x0A	; 10
    31d4:	0e 94 43 01 	call	0x286	; 0x286 <reg_servo_angle>
    31d8:	40 e0       	ldi	r20, 0x00	; 0
    31da:	50 e0       	ldi	r21, 0x00	; 0
    31dc:	62 e9       	ldi	r22, 0x92	; 146
    31de:	72 e4       	ldi	r23, 0x42	; 66
    31e0:	8b e0       	ldi	r24, 0x0B	; 11
    31e2:	0e 94 43 01 	call	0x286	; 0x286 <reg_servo_angle>
    31e6:	40 e0       	ldi	r20, 0x00	; 0
    31e8:	50 e0       	ldi	r21, 0x00	; 0
    31ea:	6e e0       	ldi	r22, 0x0E	; 14
    31ec:	73 e4       	ldi	r23, 0x43	; 67
    31ee:	83 e0       	ldi	r24, 0x03	; 3
    31f0:	0e 94 43 01 	call	0x286	; 0x286 <reg_servo_angle>
    31f4:	40 e0       	ldi	r20, 0x00	; 0
    31f6:	50 e0       	ldi	r21, 0x00	; 0
    31f8:	6a eb       	ldi	r22, 0xBA	; 186
    31fa:	72 e4       	ldi	r23, 0x42	; 66
    31fc:	84 e0       	ldi	r24, 0x04	; 4
    31fe:	0e 94 43 01 	call	0x286	; 0x286 <reg_servo_angle>
    3202:	40 e0       	ldi	r20, 0x00	; 0
    3204:	50 e0       	ldi	r21, 0x00	; 0
    3206:	62 e6       	ldi	r22, 0x62	; 98
    3208:	73 e4       	ldi	r23, 0x43	; 67
    320a:	85 e0       	ldi	r24, 0x05	; 5
    320c:	0e 94 43 01 	call	0x286	; 0x286 <reg_servo_angle>
    3210:	40 e0       	ldi	r20, 0x00	; 0
    3212:	50 e0       	ldi	r21, 0x00	; 0
    3214:	6e e0       	ldi	r22, 0x0E	; 14
    3216:	73 e4       	ldi	r23, 0x43	; 67
    3218:	8c e0       	ldi	r24, 0x0C	; 12
    321a:	0e 94 43 01 	call	0x286	; 0x286 <reg_servo_angle>
    321e:	40 e0       	ldi	r20, 0x00	; 0
    3220:	50 e0       	ldi	r21, 0x00	; 0
    3222:	6f e4       	ldi	r22, 0x4F	; 79
    3224:	73 e4       	ldi	r23, 0x43	; 67
    3226:	8d e0       	ldi	r24, 0x0D	; 13
    3228:	0e 94 43 01 	call	0x286	; 0x286 <reg_servo_angle>
    322c:	40 e0       	ldi	r20, 0x00	; 0
    322e:	50 e0       	ldi	r21, 0x00	; 0
    3230:	64 e9       	ldi	r22, 0x94	; 148
    3232:	72 e4       	ldi	r23, 0x42	; 66
    3234:	8e e0       	ldi	r24, 0x0E	; 14
    3236:	0e 94 43 01 	call	0x286	; 0x286 <reg_servo_angle>
    323a:	40 e0       	ldi	r20, 0x00	; 0
    323c:	50 e0       	ldi	r21, 0x00	; 0
    323e:	69 e1       	ldi	r22, 0x19	; 25
    3240:	73 e4       	ldi	r23, 0x43	; 67
    3242:	80 e0       	ldi	r24, 0x00	; 0
    3244:	0e 94 43 01 	call	0x286	; 0x286 <reg_servo_angle>
    3248:	40 e0       	ldi	r20, 0x00	; 0
    324a:	50 e0       	ldi	r21, 0x00	; 0
    324c:	68 eb       	ldi	r22, 0xB8	; 184
    324e:	72 e4       	ldi	r23, 0x42	; 66
    3250:	81 e0       	ldi	r24, 0x01	; 1
    3252:	0e 94 43 01 	call	0x286	; 0x286 <reg_servo_angle>
    3256:	40 e0       	ldi	r20, 0x00	; 0
    3258:	50 e0       	ldi	r21, 0x00	; 0
    325a:	63 e6       	ldi	r22, 0x63	; 99
    325c:	73 e4       	ldi	r23, 0x43	; 67
    325e:	82 e0       	ldi	r24, 0x02	; 2
    3260:	0e 94 43 01 	call	0x286	; 0x286 <reg_servo_angle>
    3264:	40 e0       	ldi	r20, 0x00	; 0
    3266:	50 e0       	ldi	r21, 0x00	; 0
    3268:	6d e1       	ldi	r22, 0x1D	; 29
    326a:	73 e4       	ldi	r23, 0x43	; 67
    326c:	8f e0       	ldi	r24, 0x0F	; 15
    326e:	0e 94 43 01 	call	0x286	; 0x286 <reg_servo_angle>
    3272:	40 e0       	ldi	r20, 0x00	; 0
    3274:	50 e0       	ldi	r21, 0x00	; 0
    3276:	65 e4       	ldi	r22, 0x45	; 69
    3278:	73 e4       	ldi	r23, 0x43	; 67
    327a:	80 e1       	ldi	r24, 0x10	; 16
    327c:	0e 94 43 01 	call	0x286	; 0x286 <reg_servo_angle>
    3280:	40 e0       	ldi	r20, 0x00	; 0
    3282:	50 e0       	ldi	r21, 0x00	; 0
    3284:	6c eb       	ldi	r22, 0xBC	; 188
    3286:	72 e4       	ldi	r23, 0x42	; 66
    3288:	81 e1       	ldi	r24, 0x11	; 17
    328a:	0e 94 43 01 	call	0x286	; 0x286 <reg_servo_angle>
    328e:	2f ef       	ldi	r18, 0xFF	; 255
    3290:	87 ee       	ldi	r24, 0xE7	; 231
    3292:	93 e0       	ldi	r25, 0x03	; 3
    3294:	21 50       	subi	r18, 0x01	; 1
    3296:	80 40       	sbci	r24, 0x00	; 0
    3298:	90 40       	sbci	r25, 0x00	; 0
    329a:	e1 f7       	brne	.-8      	; 0x3294 <four_backward+0x102>
    329c:	00 c0       	rjmp	.+0      	; 0x329e <four_backward+0x10c>
    329e:	00 00       	nop
    32a0:	0c 94 b3 01 	jmp	0x366	; 0x366 <action>
    32a4:	08 95       	ret

000032a6 <five_backward>:
    32a6:	40 e0       	ldi	r20, 0x00	; 0
    32a8:	50 e0       	ldi	r21, 0x00	; 0
    32aa:	6d e1       	ldi	r22, 0x1D	; 29
    32ac:	73 e4       	ldi	r23, 0x43	; 67
    32ae:	86 e0       	ldi	r24, 0x06	; 6
    32b0:	0e 94 43 01 	call	0x286	; 0x286 <reg_servo_angle>
    32b4:	40 e0       	ldi	r20, 0x00	; 0
    32b6:	50 e0       	ldi	r21, 0x00	; 0
    32b8:	60 eb       	ldi	r22, 0xB0	; 176
    32ba:	72 e4       	ldi	r23, 0x42	; 66
    32bc:	87 e0       	ldi	r24, 0x07	; 7
    32be:	0e 94 43 01 	call	0x286	; 0x286 <reg_servo_angle>
    32c2:	40 e0       	ldi	r20, 0x00	; 0
    32c4:	50 e0       	ldi	r21, 0x00	; 0
    32c6:	67 e5       	ldi	r22, 0x57	; 87
    32c8:	73 e4       	ldi	r23, 0x43	; 67
    32ca:	88 e0       	ldi	r24, 0x08	; 8
    32cc:	0e 94 43 01 	call	0x286	; 0x286 <reg_servo_angle>
    32d0:	40 e0       	ldi	r20, 0x00	; 0
    32d2:	50 e0       	ldi	r21, 0x00	; 0
    32d4:	69 e1       	ldi	r22, 0x19	; 25
    32d6:	73 e4       	ldi	r23, 0x43	; 67
    32d8:	89 e0       	ldi	r24, 0x09	; 9
    32da:	0e 94 43 01 	call	0x286	; 0x286 <reg_servo_angle>
    32de:	40 e0       	ldi	r20, 0x00	; 0
    32e0:	50 e0       	ldi	r21, 0x00	; 0
    32e2:	60 e5       	ldi	r22, 0x50	; 80
    32e4:	73 e4       	ldi	r23, 0x43	; 67
    32e6:	8a e0       	ldi	r24, 0x0A	; 10
    32e8:	0e 94 43 01 	call	0x286	; 0x286 <reg_servo_angle>
    32ec:	40 e0       	ldi	r20, 0x00	; 0
    32ee:	50 e0       	ldi	r21, 0x00	; 0
    32f0:	62 e9       	ldi	r22, 0x92	; 146
    32f2:	72 e4       	ldi	r23, 0x42	; 66
    32f4:	8b e0       	ldi	r24, 0x0B	; 11
    32f6:	0e 94 43 01 	call	0x286	; 0x286 <reg_servo_angle>
    32fa:	40 e0       	ldi	r20, 0x00	; 0
    32fc:	50 e0       	ldi	r21, 0x00	; 0
    32fe:	6e e0       	ldi	r22, 0x0E	; 14
    3300:	73 e4       	ldi	r23, 0x43	; 67
    3302:	83 e0       	ldi	r24, 0x03	; 3
    3304:	0e 94 43 01 	call	0x286	; 0x286 <reg_servo_angle>
    3308:	40 e0       	ldi	r20, 0x00	; 0
    330a:	50 e0       	ldi	r21, 0x00	; 0
    330c:	6a eb       	ldi	r22, 0xBA	; 186
    330e:	72 e4       	ldi	r23, 0x42	; 66
    3310:	84 e0       	ldi	r24, 0x04	; 4
    3312:	0e 94 43 01 	call	0x286	; 0x286 <reg_servo_angle>
    3316:	40 e0       	ldi	r20, 0x00	; 0
    3318:	50 e0       	ldi	r21, 0x00	; 0
    331a:	62 e6       	ldi	r22, 0x62	; 98
    331c:	73 e4       	ldi	r23, 0x43	; 67
    331e:	85 e0       	ldi	r24, 0x05	; 5
    3320:	0e 94 43 01 	call	0x286	; 0x286 <reg_servo_angle>
    3324:	40 e0       	ldi	r20, 0x00	; 0
    3326:	50 e0       	ldi	r21, 0x00	; 0
    3328:	6e e0       	ldi	r22, 0x0E	; 14
    332a:	73 e4       	ldi	r23, 0x43	; 67
    332c:	8c e0       	ldi	r24, 0x0C	; 12
    332e:	0e 94 43 01 	call	0x286	; 0x286 <reg_servo_angle>
    3332:	40 e0       	ldi	r20, 0x00	; 0
    3334:	50 e0       	ldi	r21, 0x00	; 0
    3336:	61 e6       	ldi	r22, 0x61	; 97
    3338:	73 e4       	ldi	r23, 0x43	; 67
    333a:	8d e0       	ldi	r24, 0x0D	; 13
    333c:	0e 94 43 01 	call	0x286	; 0x286 <reg_servo_angle>
    3340:	40 e0       	ldi	r20, 0x00	; 0
    3342:	50 e0       	ldi	r21, 0x00	; 0
    3344:	60 e8       	ldi	r22, 0x80	; 128
    3346:	72 e4       	ldi	r23, 0x42	; 66
    3348:	8e e0       	ldi	r24, 0x0E	; 14
    334a:	0e 94 43 01 	call	0x286	; 0x286 <reg_servo_angle>
    334e:	40 e0       	ldi	r20, 0x00	; 0
    3350:	50 e0       	ldi	r21, 0x00	; 0
    3352:	69 e1       	ldi	r22, 0x19	; 25
    3354:	73 e4       	ldi	r23, 0x43	; 67
    3356:	80 e0       	ldi	r24, 0x00	; 0
    3358:	0e 94 43 01 	call	0x286	; 0x286 <reg_servo_angle>
    335c:	40 e0       	ldi	r20, 0x00	; 0
    335e:	50 e0       	ldi	r21, 0x00	; 0
    3360:	62 e9       	ldi	r22, 0x92	; 146
    3362:	72 e4       	ldi	r23, 0x42	; 66
    3364:	81 e0       	ldi	r24, 0x01	; 1
    3366:	0e 94 43 01 	call	0x286	; 0x286 <reg_servo_angle>
    336a:	40 e0       	ldi	r20, 0x00	; 0
    336c:	50 e0       	ldi	r21, 0x00	; 0
    336e:	6e e6       	ldi	r22, 0x6E	; 110
    3370:	73 e4       	ldi	r23, 0x43	; 67
    3372:	82 e0       	ldi	r24, 0x02	; 2
    3374:	0e 94 43 01 	call	0x286	; 0x286 <reg_servo_angle>
    3378:	40 e0       	ldi	r20, 0x00	; 0
    337a:	50 e0       	ldi	r21, 0x00	; 0
    337c:	6d e1       	ldi	r22, 0x1D	; 29
    337e:	73 e4       	ldi	r23, 0x43	; 67
    3380:	8f e0       	ldi	r24, 0x0F	; 15
    3382:	0e 94 43 01 	call	0x286	; 0x286 <reg_servo_angle>
    3386:	40 e0       	ldi	r20, 0x00	; 0
    3388:	50 e0       	ldi	r21, 0x00	; 0
    338a:	65 e4       	ldi	r22, 0x45	; 69
    338c:	73 e4       	ldi	r23, 0x43	; 67
    338e:	80 e1       	ldi	r24, 0x10	; 16
    3390:	0e 94 43 01 	call	0x286	; 0x286 <reg_servo_angle>
    3394:	40 e0       	ldi	r20, 0x00	; 0
    3396:	50 e0       	ldi	r21, 0x00	; 0
    3398:	6c eb       	ldi	r22, 0xBC	; 188
    339a:	72 e4       	ldi	r23, 0x42	; 66
    339c:	81 e1       	ldi	r24, 0x11	; 17
    339e:	0e 94 43 01 	call	0x286	; 0x286 <reg_servo_angle>
    33a2:	2f ef       	ldi	r18, 0xFF	; 255
    33a4:	87 ee       	ldi	r24, 0xE7	; 231
    33a6:	93 e0       	ldi	r25, 0x03	; 3
    33a8:	21 50       	subi	r18, 0x01	; 1
    33aa:	80 40       	sbci	r24, 0x00	; 0
    33ac:	90 40       	sbci	r25, 0x00	; 0
    33ae:	e1 f7       	brne	.-8      	; 0x33a8 <five_backward+0x102>
    33b0:	00 c0       	rjmp	.+0      	; 0x33b2 <five_backward+0x10c>
    33b2:	00 00       	nop
    33b4:	0c 94 b3 01 	jmp	0x366	; 0x366 <action>
    33b8:	08 95       	ret

000033ba <six_backward>:
    33ba:	40 e0       	ldi	r20, 0x00	; 0
    33bc:	50 e0       	ldi	r21, 0x00	; 0
    33be:	68 e1       	ldi	r22, 0x18	; 24
    33c0:	73 e4       	ldi	r23, 0x43	; 67
    33c2:	86 e0       	ldi	r24, 0x06	; 6
    33c4:	0e 94 43 01 	call	0x286	; 0x286 <reg_servo_angle>
    33c8:	40 e0       	ldi	r20, 0x00	; 0
    33ca:	50 e0       	ldi	r21, 0x00	; 0
    33cc:	60 ea       	ldi	r22, 0xA0	; 160
    33ce:	72 e4       	ldi	r23, 0x42	; 66
    33d0:	87 e0       	ldi	r24, 0x07	; 7
    33d2:	0e 94 43 01 	call	0x286	; 0x286 <reg_servo_angle>
    33d6:	40 e0       	ldi	r20, 0x00	; 0
    33d8:	50 e0       	ldi	r21, 0x00	; 0
    33da:	63 e6       	ldi	r22, 0x63	; 99
    33dc:	73 e4       	ldi	r23, 0x43	; 67
    33de:	88 e0       	ldi	r24, 0x08	; 8
    33e0:	0e 94 43 01 	call	0x286	; 0x286 <reg_servo_angle>
    33e4:	40 e0       	ldi	r20, 0x00	; 0
    33e6:	50 e0       	ldi	r21, 0x00	; 0
    33e8:	64 e1       	ldi	r22, 0x14	; 20
    33ea:	73 e4       	ldi	r23, 0x43	; 67
    33ec:	89 e0       	ldi	r24, 0x09	; 9
    33ee:	0e 94 43 01 	call	0x286	; 0x286 <reg_servo_angle>
    33f2:	40 e0       	ldi	r20, 0x00	; 0
    33f4:	50 e0       	ldi	r21, 0x00	; 0
    33f6:	6b e4       	ldi	r22, 0x4B	; 75
    33f8:	73 e4       	ldi	r23, 0x43	; 67
    33fa:	8a e0       	ldi	r24, 0x0A	; 10
    33fc:	0e 94 43 01 	call	0x286	; 0x286 <reg_servo_angle>
    3400:	40 e0       	ldi	r20, 0x00	; 0
    3402:	50 e0       	ldi	r21, 0x00	; 0
    3404:	64 ea       	ldi	r22, 0xA4	; 164
    3406:	72 e4       	ldi	r23, 0x42	; 66
    3408:	8b e0       	ldi	r24, 0x0B	; 11
    340a:	0e 94 43 01 	call	0x286	; 0x286 <reg_servo_angle>
    340e:	40 e0       	ldi	r20, 0x00	; 0
    3410:	50 e0       	ldi	r21, 0x00	; 0
    3412:	66 e1       	ldi	r22, 0x16	; 22
    3414:	73 e4       	ldi	r23, 0x43	; 67
    3416:	83 e0       	ldi	r24, 0x03	; 3
    3418:	0e 94 43 01 	call	0x286	; 0x286 <reg_servo_angle>
    341c:	40 e0       	ldi	r20, 0x00	; 0
    341e:	50 e0       	ldi	r21, 0x00	; 0
    3420:	68 eb       	ldi	r22, 0xB8	; 184
    3422:	72 e4       	ldi	r23, 0x42	; 66
    3424:	84 e0       	ldi	r24, 0x04	; 4
    3426:	0e 94 43 01 	call	0x286	; 0x286 <reg_servo_angle>
    342a:	40 e0       	ldi	r20, 0x00	; 0
    342c:	50 e0       	ldi	r21, 0x00	; 0
    342e:	63 e6       	ldi	r22, 0x63	; 99
    3430:	73 e4       	ldi	r23, 0x43	; 67
    3432:	85 e0       	ldi	r24, 0x05	; 5
    3434:	0e 94 43 01 	call	0x286	; 0x286 <reg_servo_angle>
    3438:	40 e0       	ldi	r20, 0x00	; 0
    343a:	50 e0       	ldi	r21, 0x00	; 0
    343c:	66 e1       	ldi	r22, 0x16	; 22
    343e:	73 e4       	ldi	r23, 0x43	; 67
    3440:	8c e0       	ldi	r24, 0x0C	; 12
    3442:	0e 94 43 01 	call	0x286	; 0x286 <reg_servo_angle>
    3446:	40 e0       	ldi	r20, 0x00	; 0
    3448:	50 e0       	ldi	r21, 0x00	; 0
    344a:	62 e6       	ldi	r22, 0x62	; 98
    344c:	73 e4       	ldi	r23, 0x43	; 67
    344e:	8d e0       	ldi	r24, 0x0D	; 13
    3450:	0e 94 43 01 	call	0x286	; 0x286 <reg_servo_angle>
    3454:	40 e0       	ldi	r20, 0x00	; 0
    3456:	50 e0       	ldi	r21, 0x00	; 0
    3458:	6c e7       	ldi	r22, 0x7C	; 124
    345a:	72 e4       	ldi	r23, 0x42	; 66
    345c:	8e e0       	ldi	r24, 0x0E	; 14
    345e:	0e 94 43 01 	call	0x286	; 0x286 <reg_servo_angle>
    3462:	40 e0       	ldi	r20, 0x00	; 0
    3464:	50 e0       	ldi	r21, 0x00	; 0
    3466:	64 e1       	ldi	r22, 0x14	; 20
    3468:	73 e4       	ldi	r23, 0x43	; 67
    346a:	80 e0       	ldi	r24, 0x00	; 0
    346c:	0e 94 43 01 	call	0x286	; 0x286 <reg_servo_angle>
    3470:	40 e0       	ldi	r20, 0x00	; 0
    3472:	50 e0       	ldi	r21, 0x00	; 0
    3474:	60 ea       	ldi	r22, 0xA0	; 160
    3476:	72 e4       	ldi	r23, 0x42	; 66
    3478:	81 e0       	ldi	r24, 0x01	; 1
    347a:	0e 94 43 01 	call	0x286	; 0x286 <reg_servo_angle>
    347e:	40 e0       	ldi	r20, 0x00	; 0
    3480:	50 e0       	ldi	r21, 0x00	; 0
    3482:	63 e6       	ldi	r22, 0x63	; 99
    3484:	73 e4       	ldi	r23, 0x43	; 67
    3486:	82 e0       	ldi	r24, 0x02	; 2
    3488:	0e 94 43 01 	call	0x286	; 0x286 <reg_servo_angle>
    348c:	40 e0       	ldi	r20, 0x00	; 0
    348e:	50 e0       	ldi	r21, 0x00	; 0
    3490:	68 e1       	ldi	r22, 0x18	; 24
    3492:	73 e4       	ldi	r23, 0x43	; 67
    3494:	8f e0       	ldi	r24, 0x0F	; 15
    3496:	0e 94 43 01 	call	0x286	; 0x286 <reg_servo_angle>
    349a:	40 e0       	ldi	r20, 0x00	; 0
    349c:	50 e0       	ldi	r21, 0x00	; 0
    349e:	6b e4       	ldi	r22, 0x4B	; 75
    34a0:	73 e4       	ldi	r23, 0x43	; 67
    34a2:	80 e1       	ldi	r24, 0x10	; 16
    34a4:	0e 94 43 01 	call	0x286	; 0x286 <reg_servo_angle>
    34a8:	40 e0       	ldi	r20, 0x00	; 0
    34aa:	50 e0       	ldi	r21, 0x00	; 0
    34ac:	64 ea       	ldi	r22, 0xA4	; 164
    34ae:	72 e4       	ldi	r23, 0x42	; 66
    34b0:	81 e1       	ldi	r24, 0x11	; 17
    34b2:	0e 94 43 01 	call	0x286	; 0x286 <reg_servo_angle>
    34b6:	2f ef       	ldi	r18, 0xFF	; 255
    34b8:	87 ee       	ldi	r24, 0xE7	; 231
    34ba:	93 e0       	ldi	r25, 0x03	; 3
    34bc:	21 50       	subi	r18, 0x01	; 1
    34be:	80 40       	sbci	r24, 0x00	; 0
    34c0:	90 40       	sbci	r25, 0x00	; 0
    34c2:	e1 f7       	brne	.-8      	; 0x34bc <six_backward+0x102>
    34c4:	00 c0       	rjmp	.+0      	; 0x34c6 <six_backward+0x10c>
    34c6:	00 00       	nop
    34c8:	0c 94 b3 01 	jmp	0x366	; 0x366 <action>
    34cc:	08 95       	ret

000034ce <seven_backward>:
    34ce:	40 e0       	ldi	r20, 0x00	; 0
    34d0:	50 e0       	ldi	r21, 0x00	; 0
    34d2:	63 e1       	ldi	r22, 0x13	; 19
    34d4:	73 e4       	ldi	r23, 0x43	; 67
    34d6:	86 e0       	ldi	r24, 0x06	; 6
    34d8:	0e 94 43 01 	call	0x286	; 0x286 <reg_servo_angle>
    34dc:	40 e0       	ldi	r20, 0x00	; 0
    34de:	50 e0       	ldi	r21, 0x00	; 0
    34e0:	62 e9       	ldi	r22, 0x92	; 146
    34e2:	72 e4       	ldi	r23, 0x42	; 66
    34e4:	87 e0       	ldi	r24, 0x07	; 7
    34e6:	0e 94 43 01 	call	0x286	; 0x286 <reg_servo_angle>
    34ea:	40 e0       	ldi	r20, 0x00	; 0
    34ec:	50 e0       	ldi	r21, 0x00	; 0
    34ee:	6e e6       	ldi	r22, 0x6E	; 110
    34f0:	73 e4       	ldi	r23, 0x43	; 67
    34f2:	88 e0       	ldi	r24, 0x08	; 8
    34f4:	0e 94 43 01 	call	0x286	; 0x286 <reg_servo_angle>
    34f8:	40 e0       	ldi	r20, 0x00	; 0
    34fa:	50 e0       	ldi	r21, 0x00	; 0
    34fc:	6f e0       	ldi	r22, 0x0F	; 15
    34fe:	73 e4       	ldi	r23, 0x43	; 67
    3500:	89 e0       	ldi	r24, 0x09	; 9
    3502:	0e 94 43 01 	call	0x286	; 0x286 <reg_servo_angle>
    3506:	40 e0       	ldi	r20, 0x00	; 0
    3508:	50 e0       	ldi	r21, 0x00	; 0
    350a:	65 e4       	ldi	r22, 0x45	; 69
    350c:	73 e4       	ldi	r23, 0x43	; 67
    350e:	8a e0       	ldi	r24, 0x0A	; 10
    3510:	0e 94 43 01 	call	0x286	; 0x286 <reg_servo_angle>
    3514:	40 e0       	ldi	r20, 0x00	; 0
    3516:	50 e0       	ldi	r21, 0x00	; 0
    3518:	6c eb       	ldi	r22, 0xBC	; 188
    351a:	72 e4       	ldi	r23, 0x42	; 66
    351c:	8b e0       	ldi	r24, 0x0B	; 11
    351e:	0e 94 43 01 	call	0x286	; 0x286 <reg_servo_angle>
    3522:	40 e0       	ldi	r20, 0x00	; 0
    3524:	50 e0       	ldi	r21, 0x00	; 0
    3526:	6e e1       	ldi	r22, 0x1E	; 30
    3528:	73 e4       	ldi	r23, 0x43	; 67
    352a:	83 e0       	ldi	r24, 0x03	; 3
    352c:	0e 94 43 01 	call	0x286	; 0x286 <reg_servo_angle>
    3530:	40 e0       	ldi	r20, 0x00	; 0
    3532:	50 e0       	ldi	r21, 0x00	; 0
    3534:	6a eb       	ldi	r22, 0xBA	; 186
    3536:	72 e4       	ldi	r23, 0x42	; 66
    3538:	84 e0       	ldi	r24, 0x04	; 4
    353a:	0e 94 43 01 	call	0x286	; 0x286 <reg_servo_angle>
    353e:	40 e0       	ldi	r20, 0x00	; 0
    3540:	50 e0       	ldi	r21, 0x00	; 0
    3542:	62 e6       	ldi	r22, 0x62	; 98
    3544:	73 e4       	ldi	r23, 0x43	; 67
    3546:	85 e0       	ldi	r24, 0x05	; 5
    3548:	0e 94 43 01 	call	0x286	; 0x286 <reg_servo_angle>
    354c:	40 e0       	ldi	r20, 0x00	; 0
    354e:	50 e0       	ldi	r21, 0x00	; 0
    3550:	6e e1       	ldi	r22, 0x1E	; 30
    3552:	73 e4       	ldi	r23, 0x43	; 67
    3554:	8c e0       	ldi	r24, 0x0C	; 12
    3556:	0e 94 43 01 	call	0x286	; 0x286 <reg_servo_angle>
    355a:	40 e0       	ldi	r20, 0x00	; 0
    355c:	50 e0       	ldi	r21, 0x00	; 0
    355e:	61 e6       	ldi	r22, 0x61	; 97
    3560:	73 e4       	ldi	r23, 0x43	; 67
    3562:	8d e0       	ldi	r24, 0x0D	; 13
    3564:	0e 94 43 01 	call	0x286	; 0x286 <reg_servo_angle>
    3568:	40 e0       	ldi	r20, 0x00	; 0
    356a:	50 e0       	ldi	r21, 0x00	; 0
    356c:	60 e8       	ldi	r22, 0x80	; 128
    356e:	72 e4       	ldi	r23, 0x42	; 66
    3570:	8e e0       	ldi	r24, 0x0E	; 14
    3572:	0e 94 43 01 	call	0x286	; 0x286 <reg_servo_angle>
    3576:	40 e0       	ldi	r20, 0x00	; 0
    3578:	50 e0       	ldi	r21, 0x00	; 0
    357a:	6f e0       	ldi	r22, 0x0F	; 15
    357c:	73 e4       	ldi	r23, 0x43	; 67
    357e:	80 e0       	ldi	r24, 0x00	; 0
    3580:	0e 94 43 01 	call	0x286	; 0x286 <reg_servo_angle>
    3584:	40 e0       	ldi	r20, 0x00	; 0
    3586:	50 e0       	ldi	r21, 0x00	; 0
    3588:	60 eb       	ldi	r22, 0xB0	; 176
    358a:	72 e4       	ldi	r23, 0x42	; 66
    358c:	81 e0       	ldi	r24, 0x01	; 1
    358e:	0e 94 43 01 	call	0x286	; 0x286 <reg_servo_angle>
    3592:	40 e0       	ldi	r20, 0x00	; 0
    3594:	50 e0       	ldi	r21, 0x00	; 0
    3596:	67 e5       	ldi	r22, 0x57	; 87
    3598:	73 e4       	ldi	r23, 0x43	; 67
    359a:	82 e0       	ldi	r24, 0x02	; 2
    359c:	0e 94 43 01 	call	0x286	; 0x286 <reg_servo_angle>
    35a0:	40 e0       	ldi	r20, 0x00	; 0
    35a2:	50 e0       	ldi	r21, 0x00	; 0
    35a4:	63 e1       	ldi	r22, 0x13	; 19
    35a6:	73 e4       	ldi	r23, 0x43	; 67
    35a8:	8f e0       	ldi	r24, 0x0F	; 15
    35aa:	0e 94 43 01 	call	0x286	; 0x286 <reg_servo_angle>
    35ae:	40 e0       	ldi	r20, 0x00	; 0
    35b0:	50 e0       	ldi	r21, 0x00	; 0
    35b2:	60 e5       	ldi	r22, 0x50	; 80
    35b4:	73 e4       	ldi	r23, 0x43	; 67
    35b6:	80 e1       	ldi	r24, 0x10	; 16
    35b8:	0e 94 43 01 	call	0x286	; 0x286 <reg_servo_angle>
    35bc:	40 e0       	ldi	r20, 0x00	; 0
    35be:	50 e0       	ldi	r21, 0x00	; 0
    35c0:	62 e9       	ldi	r22, 0x92	; 146
    35c2:	72 e4       	ldi	r23, 0x42	; 66
    35c4:	81 e1       	ldi	r24, 0x11	; 17
    35c6:	0e 94 43 01 	call	0x286	; 0x286 <reg_servo_angle>
    35ca:	2f ef       	ldi	r18, 0xFF	; 255
    35cc:	87 ee       	ldi	r24, 0xE7	; 231
    35ce:	93 e0       	ldi	r25, 0x03	; 3
    35d0:	21 50       	subi	r18, 0x01	; 1
    35d2:	80 40       	sbci	r24, 0x00	; 0
    35d4:	90 40       	sbci	r25, 0x00	; 0
    35d6:	e1 f7       	brne	.-8      	; 0x35d0 <seven_backward+0x102>
    35d8:	00 c0       	rjmp	.+0      	; 0x35da <seven_backward+0x10c>
    35da:	00 00       	nop
    35dc:	0c 94 b3 01 	jmp	0x366	; 0x366 <action>
    35e0:	08 95       	ret

000035e2 <eight_backward>:
    35e2:	40 e0       	ldi	r20, 0x00	; 0
    35e4:	50 e0       	ldi	r21, 0x00	; 0
    35e6:	63 e1       	ldi	r22, 0x13	; 19
    35e8:	73 e4       	ldi	r23, 0x43	; 67
    35ea:	86 e0       	ldi	r24, 0x06	; 6
    35ec:	0e 94 43 01 	call	0x286	; 0x286 <reg_servo_angle>
    35f0:	40 e0       	ldi	r20, 0x00	; 0
    35f2:	50 e0       	ldi	r21, 0x00	; 0
    35f4:	68 eb       	ldi	r22, 0xB8	; 184
    35f6:	72 e4       	ldi	r23, 0x42	; 66
    35f8:	87 e0       	ldi	r24, 0x07	; 7
    35fa:	0e 94 43 01 	call	0x286	; 0x286 <reg_servo_angle>
    35fe:	40 e0       	ldi	r20, 0x00	; 0
    3600:	50 e0       	ldi	r21, 0x00	; 0
    3602:	63 e6       	ldi	r22, 0x63	; 99
    3604:	73 e4       	ldi	r23, 0x43	; 67
    3606:	88 e0       	ldi	r24, 0x08	; 8
    3608:	0e 94 43 01 	call	0x286	; 0x286 <reg_servo_angle>
    360c:	40 e0       	ldi	r20, 0x00	; 0
    360e:	50 e0       	ldi	r21, 0x00	; 0
    3610:	6f e0       	ldi	r22, 0x0F	; 15
    3612:	73 e4       	ldi	r23, 0x43	; 67
    3614:	89 e0       	ldi	r24, 0x09	; 9
    3616:	0e 94 43 01 	call	0x286	; 0x286 <reg_servo_angle>
    361a:	40 e0       	ldi	r20, 0x00	; 0
    361c:	50 e0       	ldi	r21, 0x00	; 0
    361e:	65 e4       	ldi	r22, 0x45	; 69
    3620:	73 e4       	ldi	r23, 0x43	; 67
    3622:	8a e0       	ldi	r24, 0x0A	; 10
    3624:	0e 94 43 01 	call	0x286	; 0x286 <reg_servo_angle>
    3628:	40 e0       	ldi	r20, 0x00	; 0
    362a:	50 e0       	ldi	r21, 0x00	; 0
    362c:	6c eb       	ldi	r22, 0xBC	; 188
    362e:	72 e4       	ldi	r23, 0x42	; 66
    3630:	8b e0       	ldi	r24, 0x0B	; 11
    3632:	0e 94 43 01 	call	0x286	; 0x286 <reg_servo_angle>
    3636:	40 e0       	ldi	r20, 0x00	; 0
    3638:	50 e0       	ldi	r21, 0x00	; 0
    363a:	6e e1       	ldi	r22, 0x1E	; 30
    363c:	73 e4       	ldi	r23, 0x43	; 67
    363e:	83 e0       	ldi	r24, 0x03	; 3
    3640:	0e 94 43 01 	call	0x286	; 0x286 <reg_servo_angle>
    3644:	40 e0       	ldi	r20, 0x00	; 0
    3646:	50 e0       	ldi	r21, 0x00	; 0
    3648:	6a eb       	ldi	r22, 0xBA	; 186
    364a:	72 e4       	ldi	r23, 0x42	; 66
    364c:	84 e0       	ldi	r24, 0x04	; 4
    364e:	0e 94 43 01 	call	0x286	; 0x286 <reg_servo_angle>
    3652:	40 e0       	ldi	r20, 0x00	; 0
    3654:	50 e0       	ldi	r21, 0x00	; 0
    3656:	62 e6       	ldi	r22, 0x62	; 98
    3658:	73 e4       	ldi	r23, 0x43	; 67
    365a:	85 e0       	ldi	r24, 0x05	; 5
    365c:	0e 94 43 01 	call	0x286	; 0x286 <reg_servo_angle>
    3660:	40 e0       	ldi	r20, 0x00	; 0
    3662:	50 e0       	ldi	r21, 0x00	; 0
    3664:	6e e1       	ldi	r22, 0x1E	; 30
    3666:	73 e4       	ldi	r23, 0x43	; 67
    3668:	8c e0       	ldi	r24, 0x0C	; 12
    366a:	0e 94 43 01 	call	0x286	; 0x286 <reg_servo_angle>
    366e:	40 e0       	ldi	r20, 0x00	; 0
    3670:	50 e0       	ldi	r21, 0x00	; 0
    3672:	6f e4       	ldi	r22, 0x4F	; 79
    3674:	73 e4       	ldi	r23, 0x43	; 67
    3676:	8d e0       	ldi	r24, 0x0D	; 13
    3678:	0e 94 43 01 	call	0x286	; 0x286 <reg_servo_angle>
    367c:	40 e0       	ldi	r20, 0x00	; 0
    367e:	50 e0       	ldi	r21, 0x00	; 0
    3680:	64 e9       	ldi	r22, 0x94	; 148
    3682:	72 e4       	ldi	r23, 0x42	; 66
    3684:	8e e0       	ldi	r24, 0x0E	; 14
    3686:	0e 94 43 01 	call	0x286	; 0x286 <reg_servo_angle>
    368a:	40 e0       	ldi	r20, 0x00	; 0
    368c:	50 e0       	ldi	r21, 0x00	; 0
    368e:	6f e0       	ldi	r22, 0x0F	; 15
    3690:	73 e4       	ldi	r23, 0x43	; 67
    3692:	80 e0       	ldi	r24, 0x00	; 0
    3694:	0e 94 43 01 	call	0x286	; 0x286 <reg_servo_angle>
    3698:	40 e0       	ldi	r20, 0x00	; 0
    369a:	50 e0       	ldi	r21, 0x00	; 0
    369c:	6e ec       	ldi	r22, 0xCE	; 206
    369e:	72 e4       	ldi	r23, 0x42	; 66
    36a0:	81 e0       	ldi	r24, 0x01	; 1
    36a2:	0e 94 43 01 	call	0x286	; 0x286 <reg_servo_angle>
    36a6:	40 e0       	ldi	r20, 0x00	; 0
    36a8:	50 e0       	ldi	r21, 0x00	; 0
    36aa:	6e e4       	ldi	r22, 0x4E	; 78
    36ac:	73 e4       	ldi	r23, 0x43	; 67
    36ae:	82 e0       	ldi	r24, 0x02	; 2
    36b0:	0e 94 43 01 	call	0x286	; 0x286 <reg_servo_angle>
    36b4:	40 e0       	ldi	r20, 0x00	; 0
    36b6:	50 e0       	ldi	r21, 0x00	; 0
    36b8:	63 e1       	ldi	r22, 0x13	; 19
    36ba:	73 e4       	ldi	r23, 0x43	; 67
    36bc:	8f e0       	ldi	r24, 0x0F	; 15
    36be:	0e 94 43 01 	call	0x286	; 0x286 <reg_servo_angle>
    36c2:	40 e0       	ldi	r20, 0x00	; 0
    36c4:	50 e0       	ldi	r21, 0x00	; 0
    36c6:	60 e5       	ldi	r22, 0x50	; 80
    36c8:	73 e4       	ldi	r23, 0x43	; 67
    36ca:	80 e1       	ldi	r24, 0x10	; 16
    36cc:	0e 94 43 01 	call	0x286	; 0x286 <reg_servo_angle>
    36d0:	40 e0       	ldi	r20, 0x00	; 0
    36d2:	50 e0       	ldi	r21, 0x00	; 0
    36d4:	62 e9       	ldi	r22, 0x92	; 146
    36d6:	72 e4       	ldi	r23, 0x42	; 66
    36d8:	81 e1       	ldi	r24, 0x11	; 17
    36da:	0e 94 43 01 	call	0x286	; 0x286 <reg_servo_angle>
    36de:	2f ef       	ldi	r18, 0xFF	; 255
    36e0:	87 ee       	ldi	r24, 0xE7	; 231
    36e2:	93 e0       	ldi	r25, 0x03	; 3
    36e4:	21 50       	subi	r18, 0x01	; 1
    36e6:	80 40       	sbci	r24, 0x00	; 0
    36e8:	90 40       	sbci	r25, 0x00	; 0
    36ea:	e1 f7       	brne	.-8      	; 0x36e4 <eight_backward+0x102>
    36ec:	00 c0       	rjmp	.+0      	; 0x36ee <eight_backward+0x10c>
    36ee:	00 00       	nop
    36f0:	0c 94 b3 01 	jmp	0x366	; 0x366 <action>
    36f4:	08 95       	ret

000036f6 <walk_backward>:
    36f6:	75 df       	rcall	.-278    	; 0x35e2 <eight_backward>
    36f8:	ae db       	rcall	.-2212   	; 0x2e56 <one_backward>
    36fa:	37 dc       	rcall	.-1938   	; 0x2f6a <two_backward>
    36fc:	c0 dc       	rcall	.-1664   	; 0x307e <three_backward>
    36fe:	49 dd       	rcall	.-1390   	; 0x3192 <four_backward>
    3700:	48 dd       	rcall	.-1392   	; 0x3192 <four_backward>
    3702:	d1 dd       	rcall	.-1118   	; 0x32a6 <five_backward>
    3704:	5a de       	rcall	.-844    	; 0x33ba <six_backward>
    3706:	e3 de       	rcall	.-570    	; 0x34ce <seven_backward>
    3708:	6c cf       	rjmp	.-296    	; 0x35e2 <eight_backward>
    370a:	08 95       	ret

0000370c <execute_command>:
************************************************************************************************************/

void execute_command(void)
{
	unsigned char data = 0;
	data = SPDR;
    370c:	8e b5       	in	r24, 0x2e	; 46
	if (is_moving)
    370e:	90 91 01 01 	lds	r25, 0x0101
    3712:	99 23       	and	r25, r25
    3714:	31 f0       	breq	.+12     	; 0x3722 <execute_command+0x16>
	{
		spi_tranceiver(NOT_READY);
    3716:	80 ed       	ldi	r24, 0xD0	; 208
    3718:	0e 94 e7 01 	call	0x3ce	; 0x3ce <spi_tranceiver>
		data_sending = false;
    371c:	10 92 00 01 	sts	0x0100, r1
		return;
    3720:	08 95       	ret
	}
	switch(data)
    3722:	90 e0       	ldi	r25, 0x00	; 0
    3724:	fc 01       	movw	r30, r24
    3726:	31 97       	sbiw	r30, 0x01	; 1
    3728:	e7 30       	cpi	r30, 0x07	; 7
    372a:	f1 05       	cpc	r31, r1
    372c:	08 f0       	brcs	.+2      	; 0x3730 <execute_command+0x24>
    372e:	77 c0       	rjmp	.+238    	; 0x381e <execute_command+0x112>
    3730:	ea 5b       	subi	r30, 0xBA	; 186
    3732:	ff 4f       	sbci	r31, 0xFF	; 255
    3734:	88 c1       	rjmp	.+784    	; 0x3a46 <__tablejump2__>
	{
		case WALK_FORWARD :
			spi_tranceiver(READY);
    3736:	8f ef       	ldi	r24, 0xFF	; 255
    3738:	0e 94 e7 01 	call	0x3ce	; 0x3ce <spi_tranceiver>
			is_moving = true;
    373c:	81 e0       	ldi	r24, 0x01	; 1
    373e:	80 93 01 01 	sts	0x0101, r24
			walk_forward();
    3742:	0e 94 31 06 	call	0xc62	; 0xc62 <walk_forward>
    3746:	8f e3       	ldi	r24, 0x3F	; 63
    3748:	9c e9       	ldi	r25, 0x9C	; 156
    374a:	01 97       	sbiw	r24, 0x01	; 1
    374c:	f1 f7       	brne	.-4      	; 0x374a <execute_command+0x3e>
    374e:	00 c0       	rjmp	.+0      	; 0x3750 <execute_command+0x44>
    3750:	00 00       	nop
			_delay_ms(10);
			is_moving = false;
    3752:	10 92 01 01 	sts	0x0101, r1
			break;
    3756:	63 c0       	rjmp	.+198    	; 0x381e <execute_command+0x112>
		
		case WALK_BACKWARD :
			spi_tranceiver(READY);
    3758:	8f ef       	ldi	r24, 0xFF	; 255
    375a:	0e 94 e7 01 	call	0x3ce	; 0x3ce <spi_tranceiver>
			is_moving = true;
    375e:	81 e0       	ldi	r24, 0x01	; 1
    3760:	80 93 01 01 	sts	0x0101, r24
			walk_backward();
    3764:	c8 df       	rcall	.-112    	; 0x36f6 <walk_backward>
    3766:	8f e3       	ldi	r24, 0x3F	; 63
    3768:	9c e9       	ldi	r25, 0x9C	; 156
    376a:	01 97       	sbiw	r24, 0x01	; 1
    376c:	f1 f7       	brne	.-4      	; 0x376a <execute_command+0x5e>
    376e:	00 c0       	rjmp	.+0      	; 0x3770 <execute_command+0x64>
    3770:	00 00       	nop
			_delay_ms(10);
			is_moving = false;
    3772:	10 92 01 01 	sts	0x0101, r1
			break;
    3776:	53 c0       	rjmp	.+166    	; 0x381e <execute_command+0x112>
		
		case ROTATE_LEFT :
			spi_tranceiver(READY);
    3778:	8f ef       	ldi	r24, 0xFF	; 255
    377a:	0e 94 e7 01 	call	0x3ce	; 0x3ce <spi_tranceiver>
			is_moving = true;
    377e:	81 e0       	ldi	r24, 0x01	; 1
    3780:	80 93 01 01 	sts	0x0101, r24
			rotate_rot_left60();
    3784:	0e 94 6a 0e 	call	0x1cd4	; 0x1cd4 <rotate_rot_left60>
    3788:	8f e3       	ldi	r24, 0x3F	; 63
    378a:	9c e9       	ldi	r25, 0x9C	; 156
    378c:	01 97       	sbiw	r24, 0x01	; 1
    378e:	f1 f7       	brne	.-4      	; 0x378c <execute_command+0x80>
    3790:	00 c0       	rjmp	.+0      	; 0x3792 <execute_command+0x86>
    3792:	00 00       	nop
			_delay_ms(10);
			is_moving = false;
    3794:	10 92 01 01 	sts	0x0101, r1
			break;
    3798:	42 c0       	rjmp	.+132    	; 0x381e <execute_command+0x112>
		
		case ROTATE_RIGHT :
			spi_tranceiver(READY);
    379a:	8f ef       	ldi	r24, 0xFF	; 255
    379c:	0e 94 e7 01 	call	0x3ce	; 0x3ce <spi_tranceiver>
			is_moving = true;
    37a0:	81 e0       	ldi	r24, 0x01	; 1
    37a2:	80 93 01 01 	sts	0x0101, r24
			rotate_rot_right60();
    37a6:	0e 94 c5 12 	call	0x258a	; 0x258a <rotate_rot_right60>
    37aa:	8f e3       	ldi	r24, 0x3F	; 63
    37ac:	9c e9       	ldi	r25, 0x9C	; 156
    37ae:	01 97       	sbiw	r24, 0x01	; 1
    37b0:	f1 f7       	brne	.-4      	; 0x37ae <execute_command+0xa2>
    37b2:	00 c0       	rjmp	.+0      	; 0x37b4 <execute_command+0xa8>
    37b4:	00 00       	nop
			_delay_ms(10);
			is_moving = false;
    37b6:	10 92 01 01 	sts	0x0101, r1
			break;
    37ba:	31 c0       	rjmp	.+98     	; 0x381e <execute_command+0x112>
			
		case TURN_LEFT :
			spi_tranceiver(READY);
    37bc:	8f ef       	ldi	r24, 0xFF	; 255
    37be:	0e 94 e7 01 	call	0x3ce	; 0x3ce <spi_tranceiver>
			is_moving = true;
    37c2:	81 e0       	ldi	r24, 0x01	; 1
    37c4:	80 93 01 01 	sts	0x0101, r24
			walk_forward_left();
    37c8:	0e 94 0f 0a 	call	0x141e	; 0x141e <walk_forward_left>
    37cc:	8f e3       	ldi	r24, 0x3F	; 63
    37ce:	9c e9       	ldi	r25, 0x9C	; 156
    37d0:	01 97       	sbiw	r24, 0x01	; 1
    37d2:	f1 f7       	brne	.-4      	; 0x37d0 <execute_command+0xc4>
    37d4:	00 c0       	rjmp	.+0      	; 0x37d6 <execute_command+0xca>
    37d6:	00 00       	nop
			_delay_ms(10);
			is_moving = false;
    37d8:	10 92 01 01 	sts	0x0101, r1
			break;
    37dc:	20 c0       	rjmp	.+64     	; 0x381e <execute_command+0x112>
			
		case TURN_RIGHT :
			spi_tranceiver(READY);
    37de:	8f ef       	ldi	r24, 0xFF	; 255
    37e0:	0e 94 e7 01 	call	0x3ce	; 0x3ce <spi_tranceiver>
			is_moving = true;
    37e4:	81 e0       	ldi	r24, 0x01	; 1
    37e6:	80 93 01 01 	sts	0x0101, r24
			walk_forward_right();
    37ea:	2a db       	rcall	.-2476   	; 0x2e40 <walk_forward_right>
    37ec:	8f e3       	ldi	r24, 0x3F	; 63
    37ee:	9c e9       	ldi	r25, 0x9C	; 156
    37f0:	01 97       	sbiw	r24, 0x01	; 1
    37f2:	f1 f7       	brne	.-4      	; 0x37f0 <execute_command+0xe4>
    37f4:	00 c0       	rjmp	.+0      	; 0x37f6 <execute_command+0xea>
    37f6:	00 00       	nop
			_delay_ms(10);
			is_moving = false;
    37f8:	10 92 01 01 	sts	0x0101, r1
			break;
    37fc:	10 c0       	rjmp	.+32     	; 0x381e <execute_command+0x112>
			
		case STAND_UP :
			spi_tranceiver(READY);
    37fe:	8f ef       	ldi	r24, 0xFF	; 255
    3800:	0e 94 e7 01 	call	0x3ce	; 0x3ce <spi_tranceiver>
			is_moving = true;
    3804:	81 e0       	ldi	r24, 0x01	; 1
    3806:	80 93 01 01 	sts	0x0101, r24
			stand();
    380a:	0e 94 0b 02 	call	0x416	; 0x416 <stand>
    380e:	8f e3       	ldi	r24, 0x3F	; 63
    3810:	9c e9       	ldi	r25, 0x9C	; 156
    3812:	01 97       	sbiw	r24, 0x01	; 1
    3814:	f1 f7       	brne	.-4      	; 0x3812 <execute_command+0x106>
    3816:	00 c0       	rjmp	.+0      	; 0x3818 <execute_command+0x10c>
    3818:	00 00       	nop
			_delay_ms(10);
			is_moving = false;
    381a:	10 92 01 01 	sts	0x0101, r1
			break;
		
		default :
			break;
	}
	data_sending = false;
    381e:	10 92 00 01 	sts	0x0100, r1
    3822:	08 95       	ret

00003824 <set_data_sending>:
	return;
}

void set_data_sending(bool value)
{
	data_sending = value;
    3824:	80 93 00 01 	sts	0x0100, r24
    3828:	08 95       	ret

0000382a <__vector_19>:
}

ISR(SPI_STC_vect)  
{  
    382a:	1f 92       	push	r1
    382c:	0f 92       	push	r0
    382e:	0f b6       	in	r0, 0x3f	; 63
    3830:	0f 92       	push	r0
    3832:	11 24       	eor	r1, r1
    3834:	0b b6       	in	r0, 0x3b	; 59
    3836:	0f 92       	push	r0
    3838:	2f 93       	push	r18
    383a:	3f 93       	push	r19
    383c:	4f 93       	push	r20
    383e:	5f 93       	push	r21
    3840:	6f 93       	push	r22
    3842:	7f 93       	push	r23
    3844:	8f 93       	push	r24
    3846:	9f 93       	push	r25
    3848:	af 93       	push	r26
    384a:	bf 93       	push	r27
    384c:	ef 93       	push	r30
    384e:	ff 93       	push	r31
	if (!(data_sending))
    3850:	80 91 00 01 	lds	r24, 0x0100
    3854:	81 11       	cpse	r24, r1
    3856:	04 c0       	rjmp	.+8      	; 0x3860 <__vector_19+0x36>
	{
		data_sending = true;
    3858:	81 e0       	ldi	r24, 0x01	; 1
    385a:	80 93 00 01 	sts	0x0100, r24
		execute_command();
    385e:	56 df       	rcall	.-340    	; 0x370c <execute_command>
	}
}
    3860:	ff 91       	pop	r31
    3862:	ef 91       	pop	r30
    3864:	bf 91       	pop	r27
    3866:	af 91       	pop	r26
    3868:	9f 91       	pop	r25
    386a:	8f 91       	pop	r24
    386c:	7f 91       	pop	r23
    386e:	6f 91       	pop	r22
    3870:	5f 91       	pop	r21
    3872:	4f 91       	pop	r20
    3874:	3f 91       	pop	r19
    3876:	2f 91       	pop	r18
    3878:	0f 90       	pop	r0
    387a:	0b be       	out	0x3b, r0	; 59
    387c:	0f 90       	pop	r0
    387e:	0f be       	out	0x3f, r0	; 63
    3880:	0f 90       	pop	r0
    3882:	1f 90       	pop	r1
    3884:	18 95       	reti

00003886 <__fixunssfsi>:
    3886:	33 d0       	rcall	.+102    	; 0x38ee <__fp_splitA>
    3888:	88 f0       	brcs	.+34     	; 0x38ac <__fixunssfsi+0x26>
    388a:	9f 57       	subi	r25, 0x7F	; 127
    388c:	90 f0       	brcs	.+36     	; 0x38b2 <__fixunssfsi+0x2c>
    388e:	b9 2f       	mov	r27, r25
    3890:	99 27       	eor	r25, r25
    3892:	b7 51       	subi	r27, 0x17	; 23
    3894:	a0 f0       	brcs	.+40     	; 0x38be <__fixunssfsi+0x38>
    3896:	d1 f0       	breq	.+52     	; 0x38cc <__fixunssfsi+0x46>
    3898:	66 0f       	add	r22, r22
    389a:	77 1f       	adc	r23, r23
    389c:	88 1f       	adc	r24, r24
    389e:	99 1f       	adc	r25, r25
    38a0:	1a f0       	brmi	.+6      	; 0x38a8 <__fixunssfsi+0x22>
    38a2:	ba 95       	dec	r27
    38a4:	c9 f7       	brne	.-14     	; 0x3898 <__fixunssfsi+0x12>
    38a6:	12 c0       	rjmp	.+36     	; 0x38cc <__fixunssfsi+0x46>
    38a8:	b1 30       	cpi	r27, 0x01	; 1
    38aa:	81 f0       	breq	.+32     	; 0x38cc <__fixunssfsi+0x46>
    38ac:	3a d0       	rcall	.+116    	; 0x3922 <__fp_zero>
    38ae:	b1 e0       	ldi	r27, 0x01	; 1
    38b0:	08 95       	ret
    38b2:	37 c0       	rjmp	.+110    	; 0x3922 <__fp_zero>
    38b4:	67 2f       	mov	r22, r23
    38b6:	78 2f       	mov	r23, r24
    38b8:	88 27       	eor	r24, r24
    38ba:	b8 5f       	subi	r27, 0xF8	; 248
    38bc:	39 f0       	breq	.+14     	; 0x38cc <__fixunssfsi+0x46>
    38be:	b9 3f       	cpi	r27, 0xF9	; 249
    38c0:	cc f3       	brlt	.-14     	; 0x38b4 <__fixunssfsi+0x2e>
    38c2:	86 95       	lsr	r24
    38c4:	77 95       	ror	r23
    38c6:	67 95       	ror	r22
    38c8:	b3 95       	inc	r27
    38ca:	d9 f7       	brne	.-10     	; 0x38c2 <__fixunssfsi+0x3c>
    38cc:	3e f4       	brtc	.+14     	; 0x38dc <__fixunssfsi+0x56>
    38ce:	90 95       	com	r25
    38d0:	80 95       	com	r24
    38d2:	70 95       	com	r23
    38d4:	61 95       	neg	r22
    38d6:	7f 4f       	sbci	r23, 0xFF	; 255
    38d8:	8f 4f       	sbci	r24, 0xFF	; 255
    38da:	9f 4f       	sbci	r25, 0xFF	; 255
    38dc:	08 95       	ret

000038de <__fp_split3>:
    38de:	57 fd       	sbrc	r21, 7
    38e0:	90 58       	subi	r25, 0x80	; 128
    38e2:	44 0f       	add	r20, r20
    38e4:	55 1f       	adc	r21, r21
    38e6:	59 f0       	breq	.+22     	; 0x38fe <__fp_splitA+0x10>
    38e8:	5f 3f       	cpi	r21, 0xFF	; 255
    38ea:	71 f0       	breq	.+28     	; 0x3908 <__fp_splitA+0x1a>
    38ec:	47 95       	ror	r20

000038ee <__fp_splitA>:
    38ee:	88 0f       	add	r24, r24
    38f0:	97 fb       	bst	r25, 7
    38f2:	99 1f       	adc	r25, r25
    38f4:	61 f0       	breq	.+24     	; 0x390e <__fp_splitA+0x20>
    38f6:	9f 3f       	cpi	r25, 0xFF	; 255
    38f8:	79 f0       	breq	.+30     	; 0x3918 <__fp_splitA+0x2a>
    38fa:	87 95       	ror	r24
    38fc:	08 95       	ret
    38fe:	12 16       	cp	r1, r18
    3900:	13 06       	cpc	r1, r19
    3902:	14 06       	cpc	r1, r20
    3904:	55 1f       	adc	r21, r21
    3906:	f2 cf       	rjmp	.-28     	; 0x38ec <__fp_split3+0xe>
    3908:	46 95       	lsr	r20
    390a:	f1 df       	rcall	.-30     	; 0x38ee <__fp_splitA>
    390c:	08 c0       	rjmp	.+16     	; 0x391e <__fp_splitA+0x30>
    390e:	16 16       	cp	r1, r22
    3910:	17 06       	cpc	r1, r23
    3912:	18 06       	cpc	r1, r24
    3914:	99 1f       	adc	r25, r25
    3916:	f1 cf       	rjmp	.-30     	; 0x38fa <__fp_splitA+0xc>
    3918:	86 95       	lsr	r24
    391a:	71 05       	cpc	r23, r1
    391c:	61 05       	cpc	r22, r1
    391e:	08 94       	sec
    3920:	08 95       	ret

00003922 <__fp_zero>:
    3922:	e8 94       	clt

00003924 <__fp_szero>:
    3924:	bb 27       	eor	r27, r27
    3926:	66 27       	eor	r22, r22
    3928:	77 27       	eor	r23, r23
    392a:	cb 01       	movw	r24, r22
    392c:	97 f9       	bld	r25, 7
    392e:	08 95       	ret

00003930 <__mulsf3>:
    3930:	0b d0       	rcall	.+22     	; 0x3948 <__mulsf3x>
    3932:	78 c0       	rjmp	.+240    	; 0x3a24 <__fp_round>
    3934:	69 d0       	rcall	.+210    	; 0x3a08 <__fp_pscA>
    3936:	28 f0       	brcs	.+10     	; 0x3942 <__mulsf3+0x12>
    3938:	6e d0       	rcall	.+220    	; 0x3a16 <__fp_pscB>
    393a:	18 f0       	brcs	.+6      	; 0x3942 <__mulsf3+0x12>
    393c:	95 23       	and	r25, r21
    393e:	09 f0       	breq	.+2      	; 0x3942 <__mulsf3+0x12>
    3940:	5a c0       	rjmp	.+180    	; 0x39f6 <__fp_inf>
    3942:	5f c0       	rjmp	.+190    	; 0x3a02 <__fp_nan>
    3944:	11 24       	eor	r1, r1
    3946:	ee cf       	rjmp	.-36     	; 0x3924 <__fp_szero>

00003948 <__mulsf3x>:
    3948:	ca df       	rcall	.-108    	; 0x38de <__fp_split3>
    394a:	a0 f3       	brcs	.-24     	; 0x3934 <__mulsf3+0x4>

0000394c <__mulsf3_pse>:
    394c:	95 9f       	mul	r25, r21
    394e:	d1 f3       	breq	.-12     	; 0x3944 <__mulsf3+0x14>
    3950:	95 0f       	add	r25, r21
    3952:	50 e0       	ldi	r21, 0x00	; 0
    3954:	55 1f       	adc	r21, r21
    3956:	62 9f       	mul	r22, r18
    3958:	f0 01       	movw	r30, r0
    395a:	72 9f       	mul	r23, r18
    395c:	bb 27       	eor	r27, r27
    395e:	f0 0d       	add	r31, r0
    3960:	b1 1d       	adc	r27, r1
    3962:	63 9f       	mul	r22, r19
    3964:	aa 27       	eor	r26, r26
    3966:	f0 0d       	add	r31, r0
    3968:	b1 1d       	adc	r27, r1
    396a:	aa 1f       	adc	r26, r26
    396c:	64 9f       	mul	r22, r20
    396e:	66 27       	eor	r22, r22
    3970:	b0 0d       	add	r27, r0
    3972:	a1 1d       	adc	r26, r1
    3974:	66 1f       	adc	r22, r22
    3976:	82 9f       	mul	r24, r18
    3978:	22 27       	eor	r18, r18
    397a:	b0 0d       	add	r27, r0
    397c:	a1 1d       	adc	r26, r1
    397e:	62 1f       	adc	r22, r18
    3980:	73 9f       	mul	r23, r19
    3982:	b0 0d       	add	r27, r0
    3984:	a1 1d       	adc	r26, r1
    3986:	62 1f       	adc	r22, r18
    3988:	83 9f       	mul	r24, r19
    398a:	a0 0d       	add	r26, r0
    398c:	61 1d       	adc	r22, r1
    398e:	22 1f       	adc	r18, r18
    3990:	74 9f       	mul	r23, r20
    3992:	33 27       	eor	r19, r19
    3994:	a0 0d       	add	r26, r0
    3996:	61 1d       	adc	r22, r1
    3998:	23 1f       	adc	r18, r19
    399a:	84 9f       	mul	r24, r20
    399c:	60 0d       	add	r22, r0
    399e:	21 1d       	adc	r18, r1
    39a0:	82 2f       	mov	r24, r18
    39a2:	76 2f       	mov	r23, r22
    39a4:	6a 2f       	mov	r22, r26
    39a6:	11 24       	eor	r1, r1
    39a8:	9f 57       	subi	r25, 0x7F	; 127
    39aa:	50 40       	sbci	r21, 0x00	; 0
    39ac:	8a f0       	brmi	.+34     	; 0x39d0 <__mulsf3_pse+0x84>
    39ae:	e1 f0       	breq	.+56     	; 0x39e8 <__mulsf3_pse+0x9c>
    39b0:	88 23       	and	r24, r24
    39b2:	4a f0       	brmi	.+18     	; 0x39c6 <__mulsf3_pse+0x7a>
    39b4:	ee 0f       	add	r30, r30
    39b6:	ff 1f       	adc	r31, r31
    39b8:	bb 1f       	adc	r27, r27
    39ba:	66 1f       	adc	r22, r22
    39bc:	77 1f       	adc	r23, r23
    39be:	88 1f       	adc	r24, r24
    39c0:	91 50       	subi	r25, 0x01	; 1
    39c2:	50 40       	sbci	r21, 0x00	; 0
    39c4:	a9 f7       	brne	.-22     	; 0x39b0 <__mulsf3_pse+0x64>
    39c6:	9e 3f       	cpi	r25, 0xFE	; 254
    39c8:	51 05       	cpc	r21, r1
    39ca:	70 f0       	brcs	.+28     	; 0x39e8 <__mulsf3_pse+0x9c>
    39cc:	14 c0       	rjmp	.+40     	; 0x39f6 <__fp_inf>
    39ce:	aa cf       	rjmp	.-172    	; 0x3924 <__fp_szero>
    39d0:	5f 3f       	cpi	r21, 0xFF	; 255
    39d2:	ec f3       	brlt	.-6      	; 0x39ce <__mulsf3_pse+0x82>
    39d4:	98 3e       	cpi	r25, 0xE8	; 232
    39d6:	dc f3       	brlt	.-10     	; 0x39ce <__mulsf3_pse+0x82>
    39d8:	86 95       	lsr	r24
    39da:	77 95       	ror	r23
    39dc:	67 95       	ror	r22
    39de:	b7 95       	ror	r27
    39e0:	f7 95       	ror	r31
    39e2:	e7 95       	ror	r30
    39e4:	9f 5f       	subi	r25, 0xFF	; 255
    39e6:	c1 f7       	brne	.-16     	; 0x39d8 <__mulsf3_pse+0x8c>
    39e8:	fe 2b       	or	r31, r30
    39ea:	88 0f       	add	r24, r24
    39ec:	91 1d       	adc	r25, r1
    39ee:	96 95       	lsr	r25
    39f0:	87 95       	ror	r24
    39f2:	97 f9       	bld	r25, 7
    39f4:	08 95       	ret

000039f6 <__fp_inf>:
    39f6:	97 f9       	bld	r25, 7
    39f8:	9f 67       	ori	r25, 0x7F	; 127
    39fa:	80 e8       	ldi	r24, 0x80	; 128
    39fc:	70 e0       	ldi	r23, 0x00	; 0
    39fe:	60 e0       	ldi	r22, 0x00	; 0
    3a00:	08 95       	ret

00003a02 <__fp_nan>:
    3a02:	9f ef       	ldi	r25, 0xFF	; 255
    3a04:	80 ec       	ldi	r24, 0xC0	; 192
    3a06:	08 95       	ret

00003a08 <__fp_pscA>:
    3a08:	00 24       	eor	r0, r0
    3a0a:	0a 94       	dec	r0
    3a0c:	16 16       	cp	r1, r22
    3a0e:	17 06       	cpc	r1, r23
    3a10:	18 06       	cpc	r1, r24
    3a12:	09 06       	cpc	r0, r25
    3a14:	08 95       	ret

00003a16 <__fp_pscB>:
    3a16:	00 24       	eor	r0, r0
    3a18:	0a 94       	dec	r0
    3a1a:	12 16       	cp	r1, r18
    3a1c:	13 06       	cpc	r1, r19
    3a1e:	14 06       	cpc	r1, r20
    3a20:	05 06       	cpc	r0, r21
    3a22:	08 95       	ret

00003a24 <__fp_round>:
    3a24:	09 2e       	mov	r0, r25
    3a26:	03 94       	inc	r0
    3a28:	00 0c       	add	r0, r0
    3a2a:	11 f4       	brne	.+4      	; 0x3a30 <__fp_round+0xc>
    3a2c:	88 23       	and	r24, r24
    3a2e:	52 f0       	brmi	.+20     	; 0x3a44 <__fp_round+0x20>
    3a30:	bb 0f       	add	r27, r27
    3a32:	40 f4       	brcc	.+16     	; 0x3a44 <__fp_round+0x20>
    3a34:	bf 2b       	or	r27, r31
    3a36:	11 f4       	brne	.+4      	; 0x3a3c <__fp_round+0x18>
    3a38:	60 ff       	sbrs	r22, 0
    3a3a:	04 c0       	rjmp	.+8      	; 0x3a44 <__fp_round+0x20>
    3a3c:	6f 5f       	subi	r22, 0xFF	; 255
    3a3e:	7f 4f       	sbci	r23, 0xFF	; 255
    3a40:	8f 4f       	sbci	r24, 0xFF	; 255
    3a42:	9f 4f       	sbci	r25, 0xFF	; 255
    3a44:	08 95       	ret

00003a46 <__tablejump2__>:
    3a46:	ee 0f       	add	r30, r30
    3a48:	ff 1f       	adc	r31, r31

00003a4a <__tablejump__>:
    3a4a:	05 90       	lpm	r0, Z+
    3a4c:	f4 91       	lpm	r31, Z
    3a4e:	e0 2d       	mov	r30, r0
    3a50:	09 94       	ijmp

00003a52 <_exit>:
    3a52:	f8 94       	cli

00003a54 <__stop_program>:
    3a54:	ff cf       	rjmp	.-2      	; 0x3a54 <__stop_program>
